(dp1
S'output'
p2
S"<type 'exceptions.NameError'> name 'caf' is not defined"
p3
sS'layer'
p4
S'/home/nadia/Desktop/web2py/applications/Perla_V6/views/default/vue.html'
p5
sS'code'
p6
S'response.write(\'<!--\\nAuthor: W3layouts\\nAuthor URL: http://w3layouts.com\\nLicense: Creative Commons Attribution 3.0 Unported\\nLicense URL: http://creativecommons.org/licenses/by/3.0/\\n-->\\n<!DOCTYPE html>\\n<html>\\n<head>\\n<title>Votre caftan pas ch\\xc3\\xa8re</title>\\n<link href="\', escape=False)\nresponse.write(URL(\'static\', \'css/bootstrap.css\'))\nresponse.write(\'" rel=\\\'stylesheet\\\' type=\\\'text/css\\\' />\\n<link href="\', escape=False)\nresponse.write(URL(\'static\', \'css/component.css\'))\nresponse.write(\'" rel=\\\'stylesheet\\\' type=\\\'text/css\\\' />\\n<!-- jQuery (necessary for Bootstrap\\\'s JavaScript plugins) -->\\n<script src="\', escape=False)\nresponse.write(URL(\'static\', \'js/jquery.min.js\'))\nresponse.write(\'"></script>\\n\\n<!-- Custom Theme files -->\\n<link href="\', escape=False)\nresponse.write(URL(\'static\', \'css/style.css\'))\nresponse.write(\'" rel="stylesheet" type="text/css" media="all" />\\n<!-- Custom Theme files -->\\n<meta name="viewport" content="width=device-width, initial-scale=1">\\n<meta http-equiv="Content-Type" content="text/html; charset=utf-8" />\\n<meta name="keywords" content="Eshop Responsive web template, Bootstrap Web Templates, Flat Web Templates, Andriod Compatible web template,\\nSmartphone Compatible web template, free webdesigns for Nokia, Samsung, LG, SonyErricsson, Motorola web design" />\\n<script type="application/x-javascript"> addEventListener("load", function() { setTimeout(hideURLbar, 0); }, false); function hideURLbar(){ window.scrollTo(0,1); } </script>\\n<!--webfont-->\\n<!-- for bootstrap working -->\\n\\t<script type="text/javascript" src="\', escape=False)\nresponse.write(URL(\'static\',\'js/bootstrap-3.1.1.min.js\'))\nresponse.write(\'"></script>\\n<!-- //for bootstrap working -->\\n<!-- cart -->\\n\\n<!-- cart -->\\n<link rel="stylesheet" href="\', escape=False)\nresponse.write(URL(\'static\', \'css/flexslider.css\'))\nresponse.write(\'" type="text/css" media="screen" />\\n</head>\\n<body onload="brython(1)">\\n\\t<!-- header-section-starts -->\\n\\t<div class="header">\\n\\t\\t<div class="header-top-strip">\\n\\t\\t\\t<div class="container">\\n\\t\\t\\t\\t<div class="header-top-left">\\n        \', escape=False)\nuser = User(a0 or me)\nresponse.write(\'\\n\\t\\t\\t\\t\\t\', escape=False)\nif user:\n    response.write(\'\\n\\t\\t\\t\\t\\t\', escape=False)\n    a=T(\'Votre espace client\')\n    response.write(\'\\n\\t\\t\\t\\t\\t<ul>\\n\\t\\t\\t\\t\\t\\t<li><a href="\', escape=False)\n    response.write((URL(\'default\', \'profile\')))\n    response.write(\'"><span class="glyphicon glyphicon-user"> </span>Profil</a></li>\\n\\t\\t\\t\\t\\t\\t<li><a href="\', escape=False)\n    response.write((URL(\'default\', \'utilisateur\')))\n    response.write(\'"><span class="glyphicon glyphicon-lock"> </span>\', escape=False)\n    response.write(a)\n    response.write(\'</a></li>\\n\\t\\t\\t\\t\\t</ul>\\n           \', escape=False)\nelse:\n    response.write(\'\\n\\t\\t\\t\\t\\t<ul>\\n\\t\\t\\t\\t\\t\\t<li><a href="\', escape=False)\n    response.write((URL(\'default\', \'login\')))\n    response.write(\'"><span class="glyphicon glyphicon-user"> </span>Login</a></li>\\n\\t\\t\\t\\t\\t\\t<li><a href="\', escape=False)\n    response.write((URL(\'default\', \'enregistrement\')))\n    response.write(\'"><span class="glyphicon glyphicon-lock"> </span>\', escape=False)\n    response.write(T(\'Cr\xc3\xa9er un compte\'))\n    response.write(\'</a></li>\\n\\t\\t\\t\\t\\t</ul>\\n\\t\\t\\t\\t\\t\', escape=False)\n    pass\nresponse.write(\'\\n\\t\\t\\t\\t</div>\\n\\t\\t\\t\\t<div class="header-right">\\n\\t\\t\\t\\t\\t\\t<div class="cart box_1">\\n\\t\\t\\t\\t\\t\\t\\t <a id="panier" href="\', escape=False)\nresponse.write((URL(\'default\', \'panier\')))\nresponse.write(\'">\\n                <h3> <span id="simplecart" class="simpleCart_total"> \\xe2\\x82\\xac0.00 </span> (<span id="simpleCart_quantity" class="simpleCart_quantity"> 0 </span>)<img src="\', escape=False)\nresponse.write(URL(\'static\', \'images/bag.png\'))\nresponse.write(\'" alt=""></h3>\\n              </a>\\n              <p><a id="effacever"  name="efface" onclick="ajax(\\\'\', escape=False)\nresponse.write(URL(\'default\', \'nettoyage\'))\nresponse.write(\'\\\', [\\\'efface\\\'])"   href="javascript:;" class="simpleCart_empty">\', escape=False)\nresponse.write(T(\'Videz le panier\'))\nresponse.write(\'</a></p>\\n              <div class="clearfix"> </div>\\n            </div>\\n\\t\\t\\t\\t</div>\\n\\t\\t\\t\\t<div class="clearfix"> </div>\\n\\t\\t\\t</div>\\n\\t\\t</div>\\n\\t</div>\\n\\t<!-- header-section-ends -->\\n  <div class="banner-top">\\n  <div class="container">\\n      <nav class="navbar navbar-default" role="navigation">\\n    <div class="navbar-header">\\n        <button type="button" class="navbar-toggle" data-toggle="collapse" data-target="#bs-example-navbar-collapse-1">\\n          <span class="sr-only">Toggle navigation</span>\\n          <span class="icon-bar"></span>\\n          <span class="icon-bar"></span>\\n          <span class="icon-bar"></span>\\n        </button>\\n      <div class="logo">\\n        <h1><a href="\', escape=False)\nresponse.write((URL(\'default\', \'acceuil\')))\nresponse.write(\'"><span>P</span> -Erla</a></h1>\\n      </div>\\n    </div>\\n    <!--/.navbar-header-->\\n\\n    <div class="collapse navbar-collapse" id="bs-example-navbar-collapse-1">\\n        <ul class="nav navbar-nav">\\n    <li><a href="\', escape=False)\nresponse.write((URL(\'default\', \'acceuil\')))\nresponse.write(\'">\', escape=False)\nresponse.write(T(\'Acceuil\'))\nresponse.write(\'</a></li>\\n          <li class="dropdown">\\n              <a href="#" class="dropdown-toggle" data-toggle="dropdown">\', escape=False)\nresponse.write(T(\'Caftan\'))\nresponse.write(\'<b class="caret"></b></a>\\n              <ul class="dropdown-menu multi-column columns-2">\\n                <div class="row">\\n                  <div class="col-sm-4">\\n                    <ul class="multi-column-dropdown">\\n                <h6>\', escape=False)\nresponse.write(T("COLLECTION CAFTANS"))\nresponse.write(\'</h6>\\n                      <li><a href="\', escape=False)\nresponse.write((URL(\'default\', \'caftan_en_location\')))\nresponse.write(\'">\', escape=False)\nresponse.write(T("Caftan en location"))\nresponse.write(\'</a></li>\\n                      <li><a href="\', escape=False)\nresponse.write((URL(\'default\', \'caftan_en_vente\')))\nresponse.write(\'">\', escape=False)\nresponse.write(T("Caftan en vente"))\nresponse.write(\'</a></li>\\n                      <!--<li><a href="\', escape=False)\nresponse.write((URL(\'default\', \'robe_de_soiree_en_location\')))\nresponse.write(\'">\', escape=False)\nresponse.write(T("Robe de soir\xc3\xa9e en location"))\nresponse.write(\'</a></li>\\n                      <li><a href="\', escape=False)\nresponse.write((URL(\'default\', \'robe_de_soiree_en_vente\')))\nresponse.write(\'">\', escape=False)\nresponse.write(T("Robe de soir\xc3\xa9e en vente"))\nresponse.write(\'</a></li> -->\\n                    </ul>\\n                  </div>\\n            <div class="clearfix"></div>\\n                </div>\\n              </ul>\\n          </li>\\n          <li class="dropdown">\\n              <a href="#" class="dropdown-toggle" data-toggle="dropdown">\', escape=False)\nresponse.write(T("Robe de soir\xc3\xa9e"))\nresponse.write(\' <b class="caret"></b></a>\\n              <ul class="dropdown-menu multi-column columns-2">\\n                <div class="row">\\n                  <div class="col-sm-4">\\n                    <ul class="multi-column-dropdown">\\n                <h6>\', escape=False)\nresponse.write(T("COLLECTION ROBES DE SOIR\xc3\x89E"))\nresponse.write(\'</h6>\\n                      <li><a href="\', escape=False)\nresponse.write((URL(\'default\', \'robe_de_soiree_en_location\')))\nresponse.write(\'">\', escape=False)\nresponse.write(T("Robe de soir\xc3\xa9e en location"))\nresponse.write(\'</a></li>\\n                      <li><a href="\', escape=False)\nresponse.write((URL(\'default\', \'robe_de_soiree_en_vente\')))\nresponse.write(\'">\', escape=False)\nresponse.write(T("Robe de soir\xc3\xa9e en vente"))\nresponse.write(\'</a></li>\\n                    </ul>\\n                  </div>\\n            <div class="clearfix"></div>\\n                </div>\\n              </ul>\\n          </li>\\n          <li class="dropdown">\\n            <a href="#" class="dropdown-toggle" data-toggle="dropdown">\', escape=False)\nresponse.write(T("Djellaba"))\nresponse.write(\'<b class="caret"></b></a>\\n              <ul class="dropdown-menu multi-column columns-2">\\n                <div class="row">\\n                  <div class="col-sm-6">\\n                    <ul class="multi-column-dropdown">\\n                <h6>\', escape=False)\nresponse.write(T("DJELLEBA ET GUANDOURA"))\nresponse.write(\'</h6>\\n                      <li><a href="\', escape=False)\nresponse.write((URL(\'default\', \'djelleba\')))\nresponse.write(\'">\', escape=False)\nresponse.write(T("Djellaba"))\nresponse.write(\'</a></li>\\n                      <li><a href="\', escape=False)\nresponse.write((URL(\'default\', \'Guandoura\')))\nresponse.write(\'">\', escape=False)\nresponse.write(T("Guandoura"))\nresponse.write(\'</a></li>\\n                    </ul>\\n                  </div>\\n            <div class="clearfix"></div>\\n                </div>\\n              </ul>\\n          </li>\\n          <li class="dropdown">\\n            <a href="#" class="dropdown-toggle" data-toggle="dropdown">\', escape=False)\nresponse.write(T("accessoires"))\nresponse.write(\'<b class="caret"></b></a>\\n              <ul class="dropdown-menu multi-column columns-2">\\n                <div class="row">\\n                  <div class="col-sm-6">\\n                    <ul class="multi-column-dropdown">\\n                <h6>\', escape=False)\nresponse.write(T("ACCESSOIRES"))\nresponse.write(\'</h6>\\n                <li><a href="\', escape=False)\nresponse.write((URL(\'default\', \'bijoux\')))\nresponse.write(\'">\', escape=False)\nresponse.write(T("Bijoux"))\nresponse.write(\'</a></li>\\n                    </ul>\\n                  </div>\\n            <div class="clearfix"></div>\\n                </div>\\n              </ul>\\n          </li>\\n        <li><a href="contact.html">\', escape=False)\nresponse.write(T("contact"))\nresponse.write(\'</a></li>\\n        </ul>\\n    </div>\\n    <!--/.navbar-collapse-->\\n</nav>\\n<!--/.navbar-->\\n</div>\\n</div>\\n\\n\', escape=False)\nresponse.write(\'\\n\', escape=False)\nresponse.write(\'<!-- content-section-starts -->\\n\\t<div class="container">\\n\\t   <div class="products-page">\\n\\t\\t\\t<div class="products">\\n\\t\\t\\t\\t<div class="product-listy">\\n\\t\\t\\t\\t\\t<h2>\', escape=False)\nresponse.write(T(\'Nos Produits\'))\nresponse.write(\'</h2>\\n\\t\\t\\t\\t\\t<ul class="product-list">\\n\\t\\t\\t\\t\\t\\t<li><a href="">\', escape=False)\nresponse.write(T(\'Caftan en location\'))\nresponse.write(\'</a></li>\\n\\t\\t\\t\\t\\t\\t<li><a href="">\', escape=False)\nresponse.write(T(\'Caftan en vente\'))\nresponse.write(\'</a></li>\\n\\t\\t\\t\\t\\t\\t<li><a href="">\', escape=False)\nresponse.write(T(\'Robes locations \'))\nresponse.write(\'</a></li>\\n\\t\\t\\t\\t\\t\\t<li><a href="">\', escape=False)\nresponse.write(T(\'Caftan locations \'))\nresponse.write(\'</a></li>\\n\\t\\t\\t\\t\\t\\t<li><a href="">\', escape=False)\nresponse.write(T(\'Djellaba\'))\nresponse.write(\'</a></li>\\n\\t\\t\\t\\t\\t\\t<li><a href="#">\', escape=False)\nresponse.write(T(\'Bijoux\'))\nresponse.write(\'</a></li>\\n\\t\\t\\t\\t\\t\\t<li><a href="register.html">\', escape=False)\nresponse.write(T(\'Inscription\'))\nresponse.write(\'</a></li>\\n\\t\\t\\t\\t\\t</ul>\\n\\t\\t\\t\\t</div>\\n\', escape=False)\nresponse.write(\'\\n\', escape=False)\nresponse.write(\'<div class="latest-bis">\\n\\t\\t\\t\\t\\t<img src="\', escape=False)\nresponse.write(URL(\'static\',\'images/Caftan-Nb24-2.jpg\'))\nresponse.write(\'" class="img-responsive" alt="" />\\n\\t\\t\\t\\t\\t<div class="offer">\\n\\t\\t\\t\\t\\t\\t<!-- <p>40%</p>\\n\\t\\t\\t\\t\\t\\t<small>Promotion</small> -->\\n\\t\\t\\t\\t\\t</div>\\n\\t\\t\\t\\t</div>\\n\', escape=False)\nresponse.write(\'\\n\', escape=False)\ntags=db().select(db.produit.ALL, orderby=db.produit.nom, limitby=(0, 15))\nresponse.write(\'\\n\\n\\n\\n<div class="tags">\\n\\t\\t\\t\\t    \\t<h4 class="tag_head">Tags Widget</h4>\\n\\t\\t\\t\\t         <ul class="tags_links">\\n                  \', escape=False)\nfor tag in tags:\n    response.write(\'\\n              <li><a href="#">\', escape=False)\n    response.write(tag.tag)\n    response.write(\'</a></li>\\n\\t\\t\\t\\t\\t\\t\\t<li><a href="#">\', escape=False)\n    response.write(tag.tag1)\n    response.write(\'</a></li>\\n              <li><a href="#">\', escape=False)\n    response.write(tag.tag2)\n    response.write(\'</a></li>\\n                <li><a href="#">\', escape=False)\n    response.write(tag.tag3)\n    response.write(\'</a></li>\\n\\n                  \', escape=False)\n    pass\nresponse.write(\'\\n\\t\\t\\t\\t\\t\\t</ul>\\n\\n\\n\\t\\t\\t\\t     </div>\\n           </div>\\n\', escape=False)\nresponse.write(\'\\n\\n      \', escape=False)\nfor caf in caftans:\n    response.write(\'\\n\\n\\n<div class="new-product">\\n\\t\\t\\t\\t<div class="col-md-5 zoom-grid">\\n\\t\\t\\t\\t\\t<div class="flexslider">\\n\\t\\t\\t\\t\\t\\t<ul class="slides">\\n\\t\\t\\t\\t\\t\\t\\t<li data-thumb="\', escape=False)\n    response.write(URL(\'download\',args=caf.photo1))\n    response.write(\'">\\n\\t\\t\\t\\t\\t\\t\\t\\t<div class="thumb-image"> <img src="\', escape=False)\n    response.write(URL(\'download\', args=caf.photo1))\n    response.write(\'" data-imagezoom="true" class="img-responsive" alt="" /> </div>\\n\\t\\t\\t\\t\\t\\t\\t</li>\\n\\t\\t\\t\\t\\t\\t\\t<li data-thumb="\', escape=False)\n    response.write(URL(\'download\',args=caf.photo2))\n    response.write(\'">\\n\\t\\t\\t\\t\\t\\t\\t\\t<div class="thumb-image"> <img src="\', escape=False)\n    response.write(URL(\'download\',args=caf.photo2))\n    response.write(\'" data-imagezoom="true" class="img-responsive" alt="" /> </div>\\n\\t\\t\\t\\t\\t\\t\\t</li>\\n\\t\\t\\t\\t\\t\\t\\t<li data-thumb="\', escape=False)\n    response.write(URL(\'download\',args=caf.photo3))\n    response.write(\'">\\n\\t\\t\\t\\t\\t\\t\\t<div class="thumb-image"> <img src="\', escape=False)\n    response.write(URL(\'download\',args=caf.photo3))\n    response.write(\'" data-imagezoom="true" class="img-responsive" alt="" /> </div>\\n\\t\\t\\t\\t\\t\\t\\t</li>\\n\\t\\t\\t\\t\\t\\t</ul>\\n\\t\\t\\t\\t\\t</div>\\n\\t\\t\\t\\t</div>\\n\\t\\t\\t\\t<div class="col-md-7 dress-info">\\n\\t\\t\\t\\t\\t<div class="dress-name">\\n\\t\\t\\t\\t\\t\\t<h3>\', escape=False)\n    response.write(caf.nom)\n    response.write(\'</h3>\\n\\t\\t\\t\\t\\t\\t<span>\\xe2\\x82\\xac\', escape=False)\n    response.write(caf.prix_total)\n    response.write(\'</span>\\n                \', escape=False)\n    pass\nresponse.write(\'\\n\\t\\t\\t\\t\\t\\t<div class="clearfix crop"></div>\\n\\t\\t\\t\\t    <p>\', escape=False)\nresponse.write(MARKMIN(caf.descriptif))\nresponse.write(\'</p>\\n\\t\\t\\t\\t\\t</div>\\n\\t\\t\\t\\t\\t<div class="span span1">\\n\\t\\t\\t\\t\\t\\t<p class="left">FABRIC ORIGIN</p>\\n\\t\\t\\t\\t\\t\\t<p class="right">\', escape=False)\nresponse.write(caf.couleur.capitalize())\nresponse.write(\'</p>\\n\\t\\t\\t\\t\\t\\t<div class="clearfix"></div>\\n\\t\\t\\t\\t\\t</div>\\n\\t\\t\\t\\t\\t<div class="span span2">\\n\\t\\t\\t\\t\\t\\t<p class="left">MADE IN</p>\\n\\t\\t\\t\\t\\t\\t<p class="right">\', escape=False)\nresponse.write(caf.fabrique.capitalize())\nresponse.write(\'</p>\\n\\t\\t\\t\\t\\t\\t<div class="clearfix"></div>\\n\\t\\t\\t\\t\\t</div>\\n\\t\\t\\t\\t\\t<div class="span span3">\\n\\t\\t\\t\\t\\t\\t<p class="left">COLOR</p>\\n\\t\\t\\t\\t\\t\\t<p class="right">\', escape=False)\nresponse.write(caf.couleur.capitalize())\nresponse.write(\'</p>\\n\\t\\t\\t\\t\\t\\t<div class="clearfix"></div>\\n\\t\\t\\t\\t\\t</div>\\n\\t\\t\\t\\t\\t<div class="span span4">\\n\\t\\t\\t\\t\\t\\t<p class="left">SIZE</p>\\n\\t\\t\\t\\t\\t\\t<p class="right"><span class="selection-box"><select class="domains valid" name="domains">\\n\\t\\t\\t\\t\\t\\t\\t\\t\\t\\t   <option>M</option>\\n\\t\\t\\t\\t\\t\\t\\t\\t\\t\\t   <option>L</option>\\n\\t\\t\\t\\t\\t\\t\\t\\t\\t\\t   <option>XL</option>\\n\\t\\t\\t\\t\\t\\t\\t\\t\\t\\t   <option>FS</option>\\n\\t\\t\\t\\t\\t\\t\\t\\t\\t\\t   <option>S</option>\\n\\t\\t\\t\\t\\t\\t\\t\\t\\t   </select></span></p>\\n\\t\\t\\t\\t\\t\\t<div class="clearfix"></div>\\n\\t\\t\\t\\t\\t</div>\\n\\t\\t\\t\\t\\t<div class="purchase">\\n\\t\\t\\t\\t\\t\\t<a href="#">Achetez Maintenant</a>\\n            \', escape=False)\npass\nresponse.write(\'\\n\\t\\t\\t\\t\\t\\t<div class="social-icons">\\n\\t\\t\\t\\t\\t\\t\\t<ul>\\n\\t\\t\\t\\t\\t\\t\\t\\t<li><a class="facebook1" href="#"></a></li>\\n\\t\\t\\t\\t\\t\\t\\t\\t<li><a class="twitter1" href="#"></a></li>\\n\\t\\t\\t\\t\\t\\t\\t\\t<li><a class="googleplus1" href="#"></a></li>\\n\\t\\t\\t\\t\\t\\t\\t</ul>\\n\\t\\t\\t\\t\\t\\t</div>\\n\\t\\t\\t\\t\\t\\t<div class="clearfix"></div>\\n\\t\\t\\t\\t\\t</div>\\n\\t\\t\\t\\t<script src="\', escape=False)\nresponse.write(URL(\'static\', \'js/imagezoom.js\'))\nresponse.write(\'"></script>\\n\\t\\t\\t\\t\\t<!-- FlexSlider -->\\n\\t\\t\\t\\t\\t<script defer src="\', escape=False)\nresponse.write(URL(\'static\', \'js/jquery.flexslider.js\'))\nresponse.write(\'"></script>\\n\\t\\t\\t\\t\\t<script>\\n\\t\\t\\t\\t\\t\\t// Can also be used with $(document).ready()\\n\\t\\t\\t\\t\\t\\t$(window).load(function() {\\n\\t\\t\\t\\t\\t\\t  $(\\\'.flexslider\\\').flexslider({\\n\\t\\t\\t\\t\\t\\t\\tanimation: "slide",\\n\\t\\t\\t\\t\\t\\t\\tcontrolNav: "thumbnails"\\n\\t\\t\\t\\t\\t\\t  });\\n\\t\\t\\t\\t\\t\\t});\\n\\t\\t\\t\\t\\t</script>\\n\\t\\t\\t\\t</div>\\n\\t\\t\\t\\t<div class="clearfix"></div>\\n\\t\\t\\t\\t\\t<div class="reviews-tabs">\\n      <!-- Main component for a primary marketing message or call to action -->\\n      <ul class="nav nav-tabs responsive hidden-xs hidden-sm" id="myTab">\\n        <li class="test-class active"><a class="deco-none misc-class" href="#how-to"> More Information</a></li>\\n        <li class="test-class"><a href="#features">Specifications</a></li>\\n        <li class="test-class"><a class="deco-none" href="#source">Reviews (7)</a></li>\\n      </ul>\\n\\n      <div class="tab-content responsive hidden-xs hidden-sm">\\n        <div class="tab-pane active" id="how-to">\\n\\t\\t <p class="tab-text">Maecenas mauris velit, consequat sit amet feugiat rit, elit vitaeert scelerisque elementum, turpis nisl accumsan ipsum Lorem Ipsum is simply dummy text of the printing and typesetting industry. and scrambled it to make a type specimen book. It has survived Auction your website on Flippa and you\\\'ll get the best price from serious buyers, dedicated support and a much better deal than you\\\'ll find with any website broker. Sell your site today I need a twitter bootstrap 3.0 theme for the full-calendar plugin. it would be great if the theme includes the add event; remove event, show event details. this must be RESPONSIVE and works on mobile devices. Also, I\\\'ve seen so many bootstrap themes that comes up with the fullcalendar plugin. However these . </p>\\n        </div>\\n        <div class="tab-pane" id="features">\\n          <p class="tab-text">Lorem ipsum dolor sit amet, consectetur adipiscing elit. Vestibulum nibh urna, euismod ut ornare non, volutpat vel tortor. Integer laoreet placerat suscipit. Sed sodales scelerisque commodo. Nam porta cursus lectus. Proin nunc erat, gravida a facilisis quis, ornare id lectus. Proin consectetur nibh quis urna gravida mollis.This tab has icon in consectetur adipiscing eliconse consectetur adipiscing elit. Vestibulum nibh urna, ctetur adipiscing elit. Vestibulum nibh urna, t.consectetur adipiscing elit. Vestibulum nibh urna,  Vestibulum nibh urna,it.</p>\\n\\t\\t  <p class="tab-text">Lorem ipsum dolor sit amet, consectetur adipisicing elit,There are many variations of passages of Lorem Ipsum available,\\n\\t\\t\\t\\t\\t\\t\\t\\t\\tsed do eiusmod tempor incididunt ut labore et dolore magna aliqua.</p>\\n\\t\\t</div>\\n        <div class="tab-pane" id="source">\\n\\t\\t  <div class="response">\\n\\t\\t\\t\\t\\t\\t<div class="media response-info">\\n\\t\\t\\t\\t\\t\\t\\t<div class="media-left response-text-left">\\n\\t\\t\\t\\t\\t\\t\\t\\t<a href="#">\\n\\t\\t\\t\\t\\t\\t\\t\\t\\t<img class="media-object" src="images/icon1.png" alt="" />\\n\\t\\t\\t\\t\\t\\t\\t\\t</a>\\n\\t\\t\\t\\t\\t\\t\\t\\t<h5><a href="#">Username</a></h5>\\n\\t\\t\\t\\t\\t\\t\\t</div>\\n\\t\\t\\t\\t\\t\\t\\t<div class="media-body response-text-right">\\n\\t\\t\\t\\t\\t\\t\\t\\t<p>Lorem ipsum dolor sit amet, consectetur adipisicing elit,There are many variations of passages of Lorem Ipsum available,\\n\\t\\t\\t\\t\\t\\t\\t\\t\\tsed do eiusmod tempor incididunt ut labore et dolore magna aliqua.</p>\\n\\t\\t\\t\\t\\t\\t\\t\\t<ul>\\n\\t\\t\\t\\t\\t\\t\\t\\t\\t<li>MARCH 21, 2015</li>\\n\\t\\t\\t\\t\\t\\t\\t\\t\\t<li><a href="single.html">Reply</a></li>\\n\\t\\t\\t\\t\\t\\t\\t\\t</ul>\\n\\t\\t\\t\\t\\t\\t\\t</div>\\n\\t\\t\\t\\t\\t\\t\\t<div class="clearfix"> </div>\\n\\t\\t\\t\\t\\t\\t</div>\\n\\t\\t\\t\\t\\t\\t<div class="media response-info">\\n\\t\\t\\t\\t\\t\\t\\t<div class="media-left response-text-left">\\n\\t\\t\\t\\t\\t\\t\\t\\t<a href="#">\\n\\t\\t\\t\\t\\t\\t\\t\\t\\t<img class="media-object" src="images/icon1.png" alt="" />\\n\\t\\t\\t\\t\\t\\t\\t\\t</a>\\n\\t\\t\\t\\t\\t\\t\\t\\t<h5><a href="#">Username</a></h5>\\n\\t\\t\\t\\t\\t\\t\\t</div>\\n\\t\\t\\t\\t\\t\\t\\t<div class="media-body response-text-right">\\n\\t\\t\\t\\t\\t\\t\\t\\t<p>Lorem ipsum dolor sit amet, consectetur adipisicing elit,There are many variations of passages of Lorem Ipsum available,\\n\\t\\t\\t\\t\\t\\t\\t\\t\\tsed do eiusmod tempor incididunt ut labore et dolore magna aliqua.</p>\\n\\t\\t\\t\\t\\t\\t\\t\\t<ul>\\n\\t\\t\\t\\t\\t\\t\\t\\t\\t<li>MARCH 26, 2054</li>\\n\\t\\t\\t\\t\\t\\t\\t\\t\\t<li><a href="single.html">Reply</a></li>\\n\\t\\t\\t\\t\\t\\t\\t\\t</ul>\\n\\t\\t\\t\\t\\t\\t\\t</div>\\n\\t\\t\\t\\t\\t\\t\\t<div class="clearfix"> </div>\\n\\t\\t\\t\\t\\t\\t</div>\\n\\t\\t\\t\\t\\t\\t<div class="media response-info">\\n\\t\\t\\t\\t\\t\\t\\t<div class="media-left response-text-left">\\n\\t\\t\\t\\t\\t\\t\\t\\t<a href="#">\\n\\t\\t\\t\\t\\t\\t\\t\\t\\t<img class="media-object" src="images/icon1.png" alt="" />\\n\\t\\t\\t\\t\\t\\t\\t\\t</a>\\n\\t\\t\\t\\t\\t\\t\\t\\t<h5><a href="#">Username</a></h5>\\n\\t\\t\\t\\t\\t\\t\\t</div>\\n\\t\\t\\t\\t\\t\\t\\t<div class="media-body response-text-right">\\n\\t\\t\\t\\t\\t\\t\\t\\t<p>Lorem ipsum dolor sit amet, consectetur adipisicing elit,There are many variations of passages of Lorem Ipsum available,\\n\\t\\t\\t\\t\\t\\t\\t\\t\\tsed do eiusmod tempor incididunt ut labore et dolore magna aliqua.</p>\\n\\t\\t\\t\\t\\t\\t\\t\\t<ul>\\n\\t\\t\\t\\t\\t\\t\\t\\t\\t<li>MAY 25, 2015</li>\\n\\t\\t\\t\\t\\t\\t\\t\\t\\t<li><a href="single.html">Reply</a></li>\\n\\t\\t\\t\\t\\t\\t\\t\\t</ul>\\n\\t\\t\\t\\t\\t\\t\\t</div>\\n\\t\\t\\t\\t\\t\\t\\t<div class="clearfix"> </div>\\n\\t\\t\\t\\t\\t\\t</div>\\n\\t\\t\\t\\t\\t\\t<div class="media response-info">\\n\\t\\t\\t\\t\\t\\t\\t<div class="media-left response-text-left">\\n\\t\\t\\t\\t\\t\\t\\t\\t<a href="#">\\n\\t\\t\\t\\t\\t\\t\\t\\t\\t<img class="media-object" src="images/icon1.png" alt="" />\\n\\t\\t\\t\\t\\t\\t\\t\\t</a>\\n\\t\\t\\t\\t\\t\\t\\t\\t<h5><a href="#">Username</a></h5>\\n\\t\\t\\t\\t\\t\\t\\t</div>\\n\\t\\t\\t\\t\\t\\t\\t<div class="media-body response-text-right">\\n\\t\\t\\t\\t\\t\\t\\t\\t<p>Lorem ipsum dolor sit amet, consectetur adipisicing elit,There are many variations of passages of Lorem Ipsum available,\\n\\t\\t\\t\\t\\t\\t\\t\\t\\tsed do eiusmod tempor incididunt ut labore et dolore magna aliqua.</p>\\n\\t\\t\\t\\t\\t\\t\\t\\t<ul>\\n\\t\\t\\t\\t\\t\\t\\t\\t\\t<li>FEB 13, 2015</li>\\n\\t\\t\\t\\t\\t\\t\\t\\t\\t<li><a href="single.html">Reply</a></li>\\n\\t\\t\\t\\t\\t\\t\\t\\t</ul>\\n\\t\\t\\t\\t\\t\\t\\t</div>\\n\\t\\t\\t\\t\\t\\t\\t<div class="clearfix"> </div>\\n\\t\\t\\t\\t\\t\\t</div>\\n\\t\\t\\t\\t\\t\\t<div class="media response-info">\\n\\t\\t\\t\\t\\t\\t\\t<div class="media-left response-text-left">\\n\\t\\t\\t\\t\\t\\t\\t\\t<a href="#">\\n\\t\\t\\t\\t\\t\\t\\t\\t\\t<img class="media-object" src="images/icon1.png" alt="" />\\n\\t\\t\\t\\t\\t\\t\\t\\t</a>\\n\\t\\t\\t\\t\\t\\t\\t\\t<h5><a href="#">Username</a></h5>\\n\\t\\t\\t\\t\\t\\t\\t</div>\\n\\t\\t\\t\\t\\t\\t\\t<div class="media-body response-text-right">\\n\\t\\t\\t\\t\\t\\t\\t\\t<p>Lorem ipsum dolor sit amet, consectetur adipisicing elit,There are many variations of passages of Lorem Ipsum available,\\n\\t\\t\\t\\t\\t\\t\\t\\t\\tsed do eiusmod tempor incididunt ut labore et dolore magna aliqua.</p>\\n\\t\\t\\t\\t\\t\\t\\t\\t<ul>\\n\\t\\t\\t\\t\\t\\t\\t\\t\\t<li>JAN 28, 2015</li>\\n\\t\\t\\t\\t\\t\\t\\t\\t\\t<li><a href="single.html">Reply</a></li>\\n\\t\\t\\t\\t\\t\\t\\t\\t</ul>\\n\\t\\t\\t\\t\\t\\t\\t</div>\\n\\t\\t\\t\\t\\t\\t\\t<div class="clearfix"> </div>\\n\\t\\t\\t\\t\\t\\t</div>\\n\\t\\t\\t\\t\\t\\t<div class="media response-info">\\n\\t\\t\\t\\t\\t\\t\\t<div class="media-left response-text-left">\\n\\t\\t\\t\\t\\t\\t\\t\\t<a href="#">\\n\\t\\t\\t\\t\\t\\t\\t\\t\\t<img class="media-object" src="images/icon1.png" alt="" />\\n\\t\\t\\t\\t\\t\\t\\t\\t</a>\\n\\t\\t\\t\\t\\t\\t\\t\\t<h5><a href="#">Username</a></h5>\\n\\t\\t\\t\\t\\t\\t\\t</div>\\n\\t\\t\\t\\t\\t\\t\\t<div class="media-body response-text-right">\\n\\t\\t\\t\\t\\t\\t\\t\\t<p>Lorem ipsum dolor sit amet, consectetur adipisicing elit,There are many variations of passages of Lorem Ipsum available,\\n\\t\\t\\t\\t\\t\\t\\t\\t\\tsed do eiusmod tempor incididunt ut labore et dolore magna aliqua.</p>\\n\\t\\t\\t\\t\\t\\t\\t\\t<ul>\\n\\t\\t\\t\\t\\t\\t\\t\\t\\t<li>APR 18, 2015</li>\\n\\t\\t\\t\\t\\t\\t\\t\\t\\t<li><a href="single.html">Reply</a></li>\\n\\t\\t\\t\\t\\t\\t\\t\\t</ul>\\n\\t\\t\\t\\t\\t\\t\\t</div>\\n\\t\\t\\t\\t\\t\\t\\t<div class="clearfix"> </div>\\n\\t\\t\\t\\t\\t\\t</div>\\n\\t\\t\\t\\t\\t\\t<div class="media response-info">\\n\\t\\t\\t\\t\\t\\t\\t<div class="media-left response-text-left">\\n\\t\\t\\t\\t\\t\\t\\t\\t<a href="#">\\n\\t\\t\\t\\t\\t\\t\\t\\t\\t<img class="media-object" src="images/icon1.png" alt="" />\\n\\t\\t\\t\\t\\t\\t\\t\\t</a>\\n\\t\\t\\t\\t\\t\\t\\t\\t<h5><a href="#">Username</a></h5>\\n\\t\\t\\t\\t\\t\\t\\t</div>\\n\\t\\t\\t\\t\\t\\t\\t<div class="media-body response-text-right">\\n\\t\\t\\t\\t\\t\\t\\t\\t<p>Lorem ipsum dolor sit amet, consectetur adipisicing elit,There are many variations of passages of Lorem Ipsum available,\\n\\t\\t\\t\\t\\t\\t\\t\\t\\tsed do eiusmod tempor incididunt ut labore et dolore magna aliqua.</p>\\n\\t\\t\\t\\t\\t\\t\\t\\t<ul>\\n\\t\\t\\t\\t\\t\\t\\t\\t\\t<li>DEC 25, 2014</li>\\n\\t\\t\\t\\t\\t\\t\\t\\t\\t<li><a href="single.html">Reply</a></li>\\n\\t\\t\\t\\t\\t\\t\\t\\t</ul>\\n\\t\\t\\t\\t\\t\\t\\t</div>\\n\\t\\t\\t\\t\\t\\t\\t<div class="clearfix"> </div>\\n\\t\\t\\t\\t\\t\\t</div>\\n\\t\\t\\t\\t\\t</div>\\n        </div>\\n      </div>\\n\\t</div>\\n\\n\\t\\t\\t</div>\\n\\t\\t\\t<div class="clearfix"></div>\\n\\t\\t\\t</div>\\n   </div>\\n\\n\\t\\t\\t\', escape=False)\nresponse.write(\'\\n\\t<script src="\', escape=False)\nresponse.write(URL(\'static\', \'js/brython.js\'))\nresponse.write(\'"> </script>\\n<div class="news-letter">\\n\\t\\t\\t<div class="container">\\n\\t\\t\\t\\t<div class="join">\\n\\t\\t\\t\\t\\t<h6>Rejoindre la Newslettre</h6>\\n\\t\\t\\t\\t\\t<div class="sub-left-right">\\n            \', escape=False)\nresponse.write(form3.custom.begin)\nresponse.write(\'\\n            \', escape=False)\nform3.custom.widget.email[\'_class\']=\'\'\nresponse.write(\'\\n            \', escape=False)\nform3.custom.widget.email[\'_type\']=\'text\'\nresponse.write(\'\\n            \', escape=False)\nform3.custom.widget.email[\'_id\']=\'validtap\'\nresponse.write(\'\\n            \', escape=False)\nform3.custom.widget.email[\'_placeholder\']=\'Entrer votre email\'\nresponse.write(\'\\n            \', escape=False)\nresponse.write(form3.custom.widget.email)\nresponse.write(\'\\n            \', escape=False)\nform3.custom.submit[\'_class\']=\'\'\nresponse.write(\'\\n            \', escape=False)\nform3.custom.submit[\'_id\']=\'validemail\'\nresponse.write(\'\\n            \', escape=False)\nform3.custom.submit[\'_value\']=\'Soumettre\'\nresponse.write(\'\\n            \', escape=False)\nresponse.write(form3.custom.submit)\nresponse.write(\'\\n            \', escape=False)\nresponse.write(form3.custom.end)\nresponse.write(\'\\n\\t\\t\\t\\t\\t</div>\\n\\t\\t\\t\\t\\t<div class="clearfix"> </div>\\n\\n\\t\\t\\t\\t\\t\', escape=False)\nif response.flash == auth.messages.invalid_login:\n    response.write(\'\\n\\t\\t\\t\\t\\t\', escape=False)\n    print("bonjour")\n    response.write(\'\\n\\t\\t\\t\\t\', escape=False)\nelse:\n    response.write(\'\\n\\n          <div  id="validing"   style="color:green" class="container text-center">\\n          \', escape=False)\n    response.write(response.flash or \'\')\n    response.write(\'\\n\\n          </div>\\n\\n\\t\\t\\t\\t\\t\', escape=False)\n    pass\nresponse.write(\'\\n\\n    <div id="error" style="color:red;" class="container text-center">\\n\\n      \', escape=False)\nif form3.errors:\n    response.write(\'\\n\\n  <ul  class="list-unstyled">\\n  \', escape=False)\n    for fieldname in form3.errors:\n        response.write(\'\\n    <li>\', escape=False)\n        response.write(fieldname)\n        response.write(\' error: \', escape=False)\n        response.write(form3.errors[fieldname])\n        response.write(\'</li>\\n  \', escape=False)\n        pass\n    response.write(\'\\n  </ul>\\n  \', escape=False)\n    form3.errors.clear()\n    response.write(\'\\n\', escape=False)\n    pass\nresponse.write(\'\\n\\n    </div>\\n\\n\\t\\t\\t\\t</div>\\n\\t\\t\\t</div>\\n\\t\\t</div>\\n\\t\\t\\n\\t\\t<footer style="background:#323a45; color:#878c93;" >\\n\\t\\t\\t<div class="fh5co-overlay" style="color:#878c93;"></div>\\n\\t\\t\\t<div class="fh5co-footer-content">\\n\\t\\t\\t\\t<div class="container">\\n\\t\\t\\t\\t\\t<div class="row">\\n\\t\\t\\t\\t\\t\\t<div class="col-md-3 col-sm-4 col-md-push-3">\\n\\t\\t\\t\\t\\t\\t\\t<h3 class="fh5co-lead" style="color:#778899;">\\xc3\\xa0 propos</h3>\\n\\t\\t\\t\\t\\t\\t\\t<ul>\\n\\t\\t\\t\\t\\t\\t\\t\\t<li><a href="apropos" style="color:#878c93;">Qui nous sommes</a></li>\\n\\t\\t\\t\\t\\t\\t\\t\\t<li><a href="securite"style="color:#878c93;">S\\xc3\\xa9curit\\xc3\\xa9</a></li>\\n\\t\\t\\t\\t\\t\\t\\t</ul>\\n\\t\\t\\t\\t\\t\\t</div>\\n\\t\\t\\t\\t\\t\\t<div class="col-md-3 col-sm-4 col-md-push-3">\\n\\t\\t\\t\\t\\t\\t\\t<h3 class="fh5co-lead" style="color:#778899;">Nous contacter</h3>\\n\\t\\t\\t\\t\\t\\t\\t<ul>\\n\\t\\t\\t\\t\\t\\t\\t\\t<li><a href="contact"style="color:#878c93;">Contact</a></li>\\n\\t\\t\\t\\t\\t\\t\\t\\t<li><a href="#"style="color:#878c93;">Coordonn\\xc3\\xa9es</a></li>\\n\\t\\t\\t\\t\\t\\t\\t</ul>\\n\\t\\t\\t\\t\\t\\t</div>\\n\\t\\t\\t\\t\\t\\t<div class="col-md-3 col-sm-4 col-md-push-3">\\n\\t\\t\\t\\t\\t\\t\\t<h3 class="fh5co-lead" style="color:#778899;" >Conditions</h3>\\n\\t\\t\\t\\t\\t\\t\\t<ul>\\n\\t\\t\\t\\t\\t\\t\\t\\t<li><a href="devente"style="color:#878c93;"> Conditions de vente</a></li>\\n\\t\\t\\t\\t\\t\\t\\t\\t<li><a href="delocation"style="color:#878c93;">Conditions de location</a></li>\\n\\t\\t\\t\\t\\t\\t\\t</ul>\\n\\t\\t\\t\\t\\t\\t</div>\\n\\n\\t\\t\\t\\t\\t\\t<div class="col-md-3 col-sm-12 col-md-pull-9">\\n\\t\\t\\t\\t\\t\\t\\t<div class="fh5co-footer-logo" ><a href="index.html" style="color:#878c93;">PERLA</a></div>\\n\\t\\t\\t\\t\\t\\t\\t<p class="fh5co-copyright"><small>&copy; 2017.Tous droits r\\xc3\\xa9serv\\xc3\\xa9s.<br>par <a href="" target="_blank" style="color:#878c93;">Perla</a> </p>\\n\\t\\t\\t\\t\\t\\t\\t<p class="fh5co-social-icons">\\n\\t\\t\\t\\t\\t\\t\\t\\t<a href="#"><i class="icon-twitter"></i></a>\\n\\t\\t\\t\\t\\t\\t\\t\\t<a href="#"><i class="icon-facebook"></i></a>\\n\\t\\t\\t\\t\\t\\t\\t\\t<a href="#"><i class="icon-instagram"></i></a>\\n\\t\\t\\t\\t\\t\\t\\t\\t<a href="#"><i class="icon-dribbble"></i></a>\\n\\t\\t\\t\\t\\t\\t\\t\\t<a href="#"><i class="icon-youtube"></i></a>\\n\\t\\t\\t\\t\\t\\t\\t</p>\\n\\t\\t\\t\\t\\t\\t</div>\\n\\t\\t\\t\\t\\t\\t\\n\\t\\t\\t\\t\\t</div>\\n\\t\\t\\t\\t</div>\\n\\t\\t\\t</div>\\n\\t\\t</footer>\\n\\n\\n\\n\\n\\n\\n\\n\\n</body>\\n</html>\\n\\n<style media="screen">\\n  .error{\\n  color:red\\n\\n\\n  }\\n</style>\\n\\n\\n<script type="text/python">\\nfrom browser import document, window\\nerror = document.getElementById(\\\'error\\\')\\nvalid  = document.getElementById(\\\'validing\\\')\\nd = valid.innerHTML\\n\\n\\n\\n\\nif len(error.innerHTML) == 123:\\n\\twindow.scrollTo(0,document.body.scrollHeight)\\n\\twindow.jQuery(\\\'html,body\\\').animate({\\\'scrollTop\\\': document.body.scrollHeight},"fast")\\nelif len(d) == 42:\\n\\twindow.scrollTo(0,document.body.scrollHeight)\\n\\twindow.jQuery(\\\'html,body\\\').animate({\\\'scrollTop\\\': document.body.scrollHeight},"fast")\\t\\n\\n\\t\\n\\n\\n\\n\\n\\n\\n\\n\\n\\n</script>\\n\\n<style type="text/css" media="screen">\\n\\n\\ninput#validtap {\\n    color: black;\\n}\\n\\t\\n</style>\', escape=False)\nresponse.write(\'\\n\\n\\n\\n\\n\\n\\n\', escape=False)\nresponse.write(\'\\n\', escape=False)'
p7
sS'snapshot'
p8
(dp9
S'exception'
p10
(dp11
S'__hash__'
p12
S"<method-wrapper '__hash__' of exceptions.NameError object>"
p13
sS'__setattr__'
p14
S"<method-wrapper '__setattr__' of exceptions.NameError object>"
p15
sS'__reduce_ex__'
p16
S'<built-in method __reduce_ex__ of exceptions.NameError object>'
p17
sS'__getslice__'
p18
S"<method-wrapper '__getslice__' of exceptions.NameError object>"
p19
sS'__getitem__'
p20
S"<method-wrapper '__getitem__' of exceptions.NameError object>"
p21
sS'__setstate__'
p22
S'<built-in method __setstate__ of exceptions.NameError object>'
p23
sS'args'
p24
S'("name \'caf\' is not defined",)'
p25
sS'__reduce__'
p26
S'<built-in method __reduce__ of exceptions.NameError object>'
p27
sS'__str__'
p28
S"<method-wrapper '__str__' of exceptions.NameError object>"
p29
sS'__format__'
p30
S'<built-in method __format__ of exceptions.NameError object>'
p31
sS'__getattribute__'
p32
S"<method-wrapper '__getattribute__' of exceptions.NameError object>"
p33
sS'__class__'
p34
S"<type 'exceptions.NameError'>"
p35
sS'__unicode__'
p36
S'<built-in method __unicode__ of exceptions.NameError object>'
p37
sS'__delattr__'
p38
S"<method-wrapper '__delattr__' of exceptions.NameError object>"
p39
sS'__subclasshook__'
p40
S'<built-in method __subclasshook__ of type object>'
p41
sS'__repr__'
p42
S"<method-wrapper '__repr__' of exceptions.NameError object>"
p43
sS'__dict__'
p44
S'{}'
p45
sS'__sizeof__'
p46
S'<built-in method __sizeof__ of exceptions.NameError object>'
p47
sS'__doc__'
p48
S"'Name not found globally.'"
p49
sS'__init__'
p50
S"<method-wrapper '__init__' of exceptions.NameError object>"
p51
sS'__new__'
p52
S'<built-in method __new__ of type object>'
p53
ssS'evalue'
p54
S"name 'caf' is not defined"
p55
sS'request'
p56
cgluon.html
XML_unpickle
p57
(S's\xe3`\x00\x00<div><table><tr><td style="font-weight:bold;vertical-align:top;">ajax</td><td style="vertical-align:top;">:</td><td><div>False</div></td></tr><tr><td style="font-weight:bold;vertical-align:top;">application</td><td style="vertical-align:top;">:</td><td><div>Perla_V6</div></td></tr><tr><td style="font-weight:bold;vertical-align:top;">args</td><td style="vertical-align:top;">:</td><td><div><table><tr><td><div>images</div></td></tr><tr><td><div>icon1.png</div></td></tr></table></div></td></tr><tr><td style="font-weight:bold;vertical-align:top;">cid</td><td style="vertical-align:top;">:</td><td><div>None</div></td></tr><tr><td style="font-weight:bold;vertical-align:top;">client</td><td style="vertical-align:top;">:</td><td><div>127.0.0.1</div></td></tr><tr><td style="font-weight:bold;vertical-align:top;">controller</td><td style="vertical-align:top;">:</td><td><div>default</div></td></tr><tr><td style="font-weight:bold;vertical-align:top;">cookies</td><td style="vertical-align:top;">:</td><td><div><table><tr><td style="font-weight:bold;vertical-align:top;">session_id_admin</td><td style="vertical-align:top;">:</td><td><div>127.0.0.1-c9813872-aee5-4749-afd1-ce404d3dcfe8<table><tr><td style="font-weight:bold;vertical-align:top;">comment</td><td style="vertical-align:top;">:</td><td><div></div></td></tr><tr><td style="font-weight:bold;vertical-align:top;">domain</td><td style="vertical-align:top;">:</td><td><div></div></td></tr><tr><td style="font-weight:bold;vertical-align:top;">expires</td><td style="vertical-align:top;">:</td><td><div></div></td></tr><tr><td style="font-weight:bold;vertical-align:top;">httponly</td><td style="vertical-align:top;">:</td><td><div></div></td></tr><tr><td style="font-weight:bold;vertical-align:top;">max-age</td><td style="vertical-align:top;">:</td><td><div></div></td></tr><tr><td style="font-weight:bold;vertical-align:top;">path</td><td style="vertical-align:top;">:</td><td><div></div></td></tr><tr><td style="font-weight:bold;vertical-align:top;">secure</td><td style="vertical-align:top;">:</td><td><div></div></td></tr><tr><td style="font-weight:bold;vertical-align:top;">version</td><td style="vertical-align:top;">:</td><td><div></div></td></tr></table></div></td></tr><tr><td style="font-weight:bold;vertical-align:top;">session_id_perla_robe_v2</td><td style="vertical-align:top;">:</td><td><div>127.0.0.1-664419ea-3394-4f17-975f-f70fb008b115<table><tr><td style="font-weight:bold;vertical-align:top;">comment</td><td style="vertical-align:top;">:</td><td><div></div></td></tr><tr><td style="font-weight:bold;vertical-align:top;">domain</td><td style="vertical-align:top;">:</td><td><div></div></td></tr><tr><td style="font-weight:bold;vertical-align:top;">expires</td><td style="vertical-align:top;">:</td><td><div></div></td></tr><tr><td style="font-weight:bold;vertical-align:top;">httponly</td><td style="vertical-align:top;">:</td><td><div></div></td></tr><tr><td style="font-weight:bold;vertical-align:top;">max-age</td><td style="vertical-align:top;">:</td><td><div></div></td></tr><tr><td style="font-weight:bold;vertical-align:top;">path</td><td style="vertical-align:top;">:</td><td><div></div></td></tr><tr><td style="font-weight:bold;vertical-align:top;">secure</td><td style="vertical-align:top;">:</td><td><div></div></td></tr><tr><td style="font-weight:bold;vertical-align:top;">version</td><td style="vertical-align:top;">:</td><td><div></div></td></tr></table></div></td></tr><tr><td style="font-weight:bold;vertical-align:top;">session_id_perla_v6</td><td style="vertical-align:top;">:</td><td><div>127.0.0.1-2dc41589-a042-4512-99fc-7879b930bb44<table><tr><td style="font-weight:bold;vertical-align:top;">comment</td><td style="vertical-align:top;">:</td><td><div></div></td></tr><tr><td style="font-weight:bold;vertical-align:top;">domain</td><td style="vertical-align:top;">:</td><td><div></div></td></tr><tr><td style="font-weight:bold;vertical-align:top;">expires</td><td style="vertical-align:top;">:</td><td><div></div></td></tr><tr><td style="font-weight:bold;vertical-align:top;">httponly</td><td style="vertical-align:top;">:</td><td><div></div></td></tr><tr><td style="font-weight:bold;vertical-align:top;">max-age</td><td style="vertical-align:top;">:</td><td><div></div></td></tr><tr><td style="font-weight:bold;vertical-align:top;">path</td><td style="vertical-align:top;">:</td><td><div></div></td></tr><tr><td style="font-weight:bold;vertical-align:top;">secure</td><td style="vertical-align:top;">:</td><td><div></div></td></tr><tr><td style="font-weight:bold;vertical-align:top;">version</td><td style="vertical-align:top;">:</td><td><div></div></td></tr></table></div></td></tr><tr><td style="font-weight:bold;vertical-align:top;">session_id_welcome</td><td style="vertical-align:top;">:</td><td><div>127.0.0.1-9992eafc-7170-4396-aac0-439172eb0c89<table><tr><td style="font-weight:bold;vertical-align:top;">comment</td><td style="vertical-align:top;">:</td><td><div></div></td></tr><tr><td style="font-weight:bold;vertical-align:top;">domain</td><td style="vertical-align:top;">:</td><td><div></div></td></tr><tr><td style="font-weight:bold;vertical-align:top;">expires</td><td style="vertical-align:top;">:</td><td><div></div></td></tr><tr><td style="font-weight:bold;vertical-align:top;">httponly</td><td style="vertical-align:top;">:</td><td><div></div></td></tr><tr><td style="font-weight:bold;vertical-align:top;">max-age</td><td style="vertical-align:top;">:</td><td><div></div></td></tr><tr><td style="font-weight:bold;vertical-align:top;">path</td><td style="vertical-align:top;">:</td><td><div></div></td></tr><tr><td style="font-weight:bold;vertical-align:top;">secure</td><td style="vertical-align:top;">:</td><td><div></div></td></tr><tr><td style="font-weight:bold;vertical-align:top;">version</td><td style="vertical-align:top;">:</td><td><div></div></td></tr></table></div></td></tr></table></div></td></tr><tr><td style="font-weight:bold;vertical-align:top;">env</td><td style="vertical-align:top;">:</td><td><div><table><tr><td style="font-weight:bold;vertical-align:top;">HTTP_ACCEPT</td><td style="vertical-align:top;">:</td><td><div>image/webp,image/apng,image/*,*/*;q=0.8</div></td></tr><tr><td style="font-weight:bold;vertical-align:top;">HTTP_ACCEPT_ENCODING</td><td style="vertical-align:top;">:</td><td><div>gzip, deflate, br</div></td></tr><tr><td style="font-weight:bold;vertical-align:top;">HTTP_ACCEPT_LANGUAGE</td><td style="vertical-align:top;">:</td><td><div>fr-FR,fr;q=0.9,en-US;q=0.8,en;q=0.7</div></td></tr><tr><td style="font-weight:bold;vertical-align:top;">HTTP_CONNECTION</td><td style="vertical-align:top;">:</td><td><div>keep-alive</div></td></tr><tr><td style="font-weight:bold;vertical-align:top;">HTTP_COOKIE</td><td style="vertical-align:top;">:</td><td><div>session_id_welcome=127.0.0.1-9992eafc-7170-4396-aac0-439172eb0c89; session_id_admin=127.0.0.1-c9813872-aee5-4749-afd1-ce404d3dcfe8; session_id_perla_v6=127.0.0.1-2dc41589-a042-4512-99fc-7879b930bb44; session_id_perla_robe_v2=127.0.0.1-664419ea-3394-4f17-975f-f70fb008b115</div></td></tr><tr><td style="font-weight:bold;vertical-align:top;">HTTP_HOST</td><td style="vertical-align:top;">:</td><td><div>127.0.0.1:8000</div></td></tr><tr><td style="font-weight:bold;vertical-align:top;">HTTP_REFERER</td><td style="vertical-align:top;">:</td><td><div>http://127.0.0.1:8000/Perla_V6/default/vue/caftan-aida</div></td></tr><tr><td style="font-weight:bold;vertical-align:top;">HTTP_USER_AGENT</td><td style="vertical-align:top;">:</td><td><div>Mozilla/5.0 (X11; Linux x86_64) AppleWebKit/537.36 (KHTML, like Gecko) Chrome/65.0.3325.146 Safari/537.36</div></td></tr><tr><td style="font-weight:bold;vertical-align:top;">PATH_INFO</td><td style="vertical-align:top;">:</td><td><div>/Perla_V6/default/vue/images/icon1.png</div></td></tr><tr><td style="font-weight:bold;vertical-align:top;">QUERY_STRING</td><td style="vertical-align:top;">:</td><td><div></div></td></tr><tr><td style="font-weight:bold;vertical-align:top;">REMOTE_ADDR</td><td style="vertical-align:top;">:</td><td><div>127.0.0.1</div></td></tr><tr><td style="font-weight:bold;vertical-align:top;">REMOTE_PORT</td><td style="vertical-align:top;">:</td><td><div>37486</div></td></tr><tr><td style="font-weight:bold;vertical-align:top;">REQUEST_METHOD</td><td style="vertical-align:top;">:</td><td><div>GET</div></td></tr><tr><td style="font-weight:bold;vertical-align:top;">SCRIPT_NAME</td><td style="vertical-align:top;">:</td><td><div></div></td></tr><tr><td style="font-weight:bold;vertical-align:top;">SERVER_NAME</td><td style="vertical-align:top;">:</td><td><div>nadia-Lenovo-B50-10</div></td></tr><tr><td style="font-weight:bold;vertical-align:top;">SERVER_PORT</td><td style="vertical-align:top;">:</td><td><div>8000</div></td></tr><tr><td style="font-weight:bold;vertical-align:top;">SERVER_PROTOCOL</td><td style="vertical-align:top;">:</td><td><div>HTTP/1.1</div></td></tr><tr><td style="font-weight:bold;vertical-align:top;">SERVER_SOFTWARE</td><td style="vertical-align:top;">:</td><td><div>Rocket 1.2.6</div></td></tr><tr><td style="font-weight:bold;vertical-align:top;">app_folders</td><td style="vertical-align:top;">:</td><td><div>set([&#x27;/home/nadia/Desktop/web2py/applications/Perla_Robe_V2/&#x27;, &#x27;/home/nadia/Desktop/web2py/applications/admin/&#x27;, &#x27;/home/nadia/Desktop/web2py/applications/Perla_V6/&#x27;, &#x27;/home/nadia/Desktop/web2py/applications/welcome/&#x27;])</div></td></tr><tr><td style="font-weight:bold;vertical-align:top;">applications_parent</td><td style="vertical-align:top;">:</td><td><div>/home/nadia/Desktop/web2py</div></td></tr><tr><td style="font-weight:bold;vertical-align:top;">cmd_args</td><td style="vertical-align:top;">:</td><td><div><table></table></div></td></tr><tr><td style="font-weight:bold;vertical-align:top;">cmd_options</td><td style="vertical-align:top;">:</td><td><div>&lt;Values at 0x7ffb642263f8: {&#x27;verbose&#x27;: False, &#x27;ip&#x27;: &#x27;127.0.0.1&#x27;, &#x27;debuglevel&#x27;: 30, &#x27;with_scheduler&#x27;: False, &#x27;shutdown_timeout&#x27;: 5, &#x27;taskbar&#x27;: False, &#x27;with_coverage&#x27;: False, &#x27;pid_filename&#x27;: &#x27;httpserver.pid&#x27;, &#x27;maxthreads&#x27;: None, &#x27;softcron&#x27;: False, &#x27;server_name&#x27;: &#x27;nadia-Lenovo-B50-10&#x27;, &#x27;bpython&#x27;: False, &#x27;nogui&#x27;: False, &#x27;port&#x27;: 8000, &#x27;print_errors&#x27;: False, &#x27;extcron&#x27;: False, &#x27;runcron&#x27;: False, &#x27;run_system_tests&#x27;: False, &#x27;test&#x27;: None, &#x27;folder&#x27;: &#x27;/home/nadia/Desktop/web2py&#x27;, &#x27;config&#x27;: &#x27;&#x27;, &#x27;minthreads&#x27;: None, &#x27;shell&#x27;: None, &#x27;run&#x27;: &#x27;&#x27;, &#x27;log_filename&#x27;: &#x27;httpserver.log&#x27;, &#x27;profiler_dir&#x27;: None, &#x27;args&#x27;: [&#x27;&#x27;], &#x27;socket_timeout&#x27;: 5, &#x27;ssl_ca_certificate&#x27;: None, &#x27;scheduler&#x27;: None, &#x27;interfaces&#x27;: None, &#x27;ssl_private_key&#x27;: &#x27;&#x27;, &#x27;gae&#x27;: None, &#x27;password&#x27;: &#x27;******&#x27;, &#x27;request_queue_size&#x27;: 5, &#x27;ssl_certificate&#x27;: &#x27;&#x27;, &#x27;cronjob&#x27;: False, &#x27;numthreads&#x27;: None, &#x27;quiet&#x27;: False, &#x27;import_models&#x27;: False, &#x27;timeout&#x27;: 10, &#x27;plain&#x27;: False, &#x27;nobanner&#x27;: False}&gt;</div></td></tr><tr><td style="font-weight:bold;vertical-align:top;">db_sessions</td><td style="vertical-align:top;">:</td><td><div>set([])</div></td></tr><tr><td style="font-weight:bold;vertical-align:top;">debugging</td><td style="vertical-align:top;">:</td><td><div>False</div></td></tr><tr><td style="font-weight:bold;vertical-align:top;">gluon_parent</td><td style="vertical-align:top;">:</td><td><div>/home/nadia/Desktop/web2py</div></td></tr><tr><td style="font-weight:bold;vertical-align:top;">http_accept</td><td style="vertical-align:top;">:</td><td><div>image/webp,image/apng,image/*,*/*;q=0.8</div></td></tr><tr><td style="font-weight:bold;vertical-align:top;">http_accept_encoding</td><td style="vertical-align:top;">:</td><td><div>gzip, deflate, br</div></td></tr><tr><td style="font-weight:bold;vertical-align:top;">http_accept_language</td><td style="vertical-align:top;">:</td><td><div>fr-FR,fr;q=0.9,en-US;q=0.8,en;q=0.7</div></td></tr><tr><td style="font-weight:bold;vertical-align:top;">http_connection</td><td style="vertical-align:top;">:</td><td><div>keep-alive</div></td></tr><tr><td style="font-weight:bold;vertical-align:top;">http_cookie</td><td style="vertical-align:top;">:</td><td><div>session_id_welcome=127.0.0.1-9992eafc-7170-4396-aac0-439172eb0c89; session_id_admin=127.0.0.1-c9813872-aee5-4749-afd1-ce404d3dcfe8; session_id_perla_v6=127.0.0.1-2dc41589-a042-4512-99fc-7879b930bb44; session_id_perla_robe_v2=127.0.0.1-664419ea-3394-4f17-975f-f70fb008b115</div></td></tr><tr><td style="font-weight:bold;vertical-align:top;">http_host</td><td style="vertical-align:top;">:</td><td><div>127.0.0.1:8000</div></td></tr><tr><td style="font-weight:bold;vertical-align:top;">http_referer</td><td style="vertical-align:top;">:</td><td><div>http://127.0.0.1:8000/Perla_V6/default/vue/caftan-aida</div></td></tr><tr><td style="font-weight:bold;vertical-align:top;">http_user_agent</td><td style="vertical-align:top;">:</td><td><div>Mozilla/5.0 (X11; Linux x86_64) AppleWebKit/537.36 (KHTML, like Gecko) Chrome/65.0.3325.146 Safari/537.36</div></td></tr><tr><td style="font-weight:bold;vertical-align:top;">is_jython</td><td style="vertical-align:top;">:</td><td><div>False</div></td></tr><tr><td style="font-weight:bold;vertical-align:top;">is_pypy</td><td style="vertical-align:top;">:</td><td><div>False</div></td></tr><tr><td style="font-weight:bold;vertical-align:top;">is_source</td><td style="vertical-align:top;">:</td><td><div>True</div></td></tr><tr><td style="font-weight:bold;vertical-align:top;">local_hosts</td><td style="vertical-align:top;">:</td><td><div><table><tr><td><div>nadia-Lenovo-B50-10</div></td></tr><tr><td><div>::1</div></td></tr><tr><td><div>127.0.1.1</div></td></tr><tr><td><div>::ffff:127.0.0.1</div></td></tr><tr><td><div>127.0.0.1</div></td></tr></table></div></td></tr><tr><td style="font-weight:bold;vertical-align:top;">path_info</td><td style="vertical-align:top;">:</td><td><div>/Perla_V6/default/vue/images/icon1.png</div></td></tr><tr><td style="font-weight:bold;vertical-align:top;">query_string</td><td style="vertical-align:top;">:</td><td><div></div></td></tr><tr><td style="font-weight:bold;vertical-align:top;">remote_addr</td><td style="vertical-align:top;">:</td><td><div>127.0.0.1</div></td></tr><tr><td style="font-weight:bold;vertical-align:top;">remote_port</td><td style="vertical-align:top;">:</td><td><div>37486</div></td></tr><tr><td style="font-weight:bold;vertical-align:top;">request_method</td><td style="vertical-align:top;">:</td><td><div>GET</div></td></tr><tr><td style="font-weight:bold;vertical-align:top;">request_uri</td><td style="vertical-align:top;">:</td><td><div>/Perla_V6/default/vue/images/icon1.png</div></td></tr><tr><td style="font-weight:bold;vertical-align:top;">script_name</td><td style="vertical-align:top;">:</td><td><div></div></td></tr><tr><td style="font-weight:bold;vertical-align:top;">server_name</td><td style="vertical-align:top;">:</td><td><div>nadia-Lenovo-B50-10</div></td></tr><tr><td style="font-weight:bold;vertical-align:top;">server_port</td><td style="vertical-align:top;">:</td><td><div>8000</div></td></tr><tr><td style="font-weight:bold;vertical-align:top;">server_protocol</td><td style="vertical-align:top;">:</td><td><div>HTTP/1.1</div></td></tr><tr><td style="font-weight:bold;vertical-align:top;">server_software</td><td style="vertical-align:top;">:</td><td><div>Rocket 1.2.6</div></td></tr><tr><td style="font-weight:bold;vertical-align:top;">web2py_path</td><td style="vertical-align:top;">:</td><td><div>/home/nadia/Desktop/web2py</div></td></tr><tr><td style="font-weight:bold;vertical-align:top;">web2py_version</td><td style="vertical-align:top;">:</td><td><div>2.14.6-stable+timestamp.2016.05.10.00.21.47</div></td></tr><tr><td style="font-weight:bold;vertical-align:top;">wsgi.errors</td><td style="vertical-align:top;">:</td><td><div>&lt;open file &#x27;&lt;stderr&gt;&#x27;, mode &#x27;w&#x27; at 0x7ffb6807b1e0&gt;</div></td></tr><tr><td style="font-weight:bold;vertical-align:top;">wsgi.file_wrapper</td><td style="vertical-align:top;">:</td><td><div>&lt;class wsgiref.util.FileWrapper at 0x7ffb64240120&gt;</div></td></tr><tr><td style="font-weight:bold;vertical-align:top;">wsgi.input</td><td style="vertical-align:top;">:</td><td><div>&lt;socket._fileobject object at 0x7ffb2ab1b8d0&gt;</div></td></tr><tr><td style="font-weight:bold;vertical-align:top;">wsgi.multiprocess</td><td style="vertical-align:top;">:</td><td><div>False</div></td></tr><tr><td style="font-weight:bold;vertical-align:top;">wsgi.multithread</td><td style="vertical-align:top;">:</td><td><div>True</div></td></tr><tr><td style="font-weight:bold;vertical-align:top;">wsgi.run_once</td><td style="vertical-align:top;">:</td><td><div>False</div></td></tr><tr><td style="font-weight:bold;vertical-align:top;">wsgi.url_scheme</td><td style="vertical-align:top;">:</td><td><div>http</div></td></tr><tr><td style="font-weight:bold;vertical-align:top;">wsgi.version</td><td style="vertical-align:top;">:</td><td><div><table><tr><td><div>1</div></td></tr><tr><td><div>0</div></td></tr></table></div></td></tr><tr><td style="font-weight:bold;vertical-align:top;">wsgi_errors</td><td style="vertical-align:top;">:</td><td><div>&lt;open file &#x27;&lt;stderr&gt;&#x27;, mode &#x27;w&#x27; at 0x7ffb6807b1e0&gt;</div></td></tr><tr><td style="font-weight:bold;vertical-align:top;">wsgi_file_wrapper</td><td style="vertical-align:top;">:</td><td><div>&lt;class wsgiref.util.FileWrapper at 0x7ffb64240120&gt;</div></td></tr><tr><td style="font-weight:bold;vertical-align:top;">wsgi_input</td><td style="vertical-align:top;">:</td><td><div>&lt;socket._fileobject object at 0x7ffb2ab1b8d0&gt;</div></td></tr><tr><td style="font-weight:bold;vertical-align:top;">wsgi_multiprocess</td><td style="vertical-align:top;">:</td><td><div>False</div></td></tr><tr><td style="font-weight:bold;vertical-align:top;">wsgi_multithread</td><td style="vertical-align:top;">:</td><td><div>True</div></td></tr><tr><td style="font-weight:bold;vertical-align:top;">wsgi_run_once</td><td style="vertical-align:top;">:</td><td><div>False</div></td></tr><tr><td style="font-weight:bold;vertical-align:top;">wsgi_url_scheme</td><td style="vertical-align:top;">:</td><td><div>http</div></td></tr><tr><td style="font-weight:bold;vertical-align:top;">wsgi_version</td><td style="vertical-align:top;">:</td><td><div><table><tr><td><div>1</div></td></tr><tr><td><div>0</div></td></tr></table></div></td></tr></table></div></td></tr><tr><td style="font-weight:bold;vertical-align:top;">extension</td><td style="vertical-align:top;">:</td><td><div>html</div></td></tr><tr><td style="font-weight:bold;vertical-align:top;">folder</td><td style="vertical-align:top;">:</td><td><div>/home/nadia/Desktop/web2py/applications/Perla_V6/</div></td></tr><tr><td style="font-weight:bold;vertical-align:top;">function</td><td style="vertical-align:top;">:</td><td><div>vue</div></td></tr><tr><td style="font-weight:bold;vertical-align:top;">global_settings</td><td style="vertical-align:top;">:</td><td><div><table><tr><td style="font-weight:bold;vertical-align:top;">app_folders</td><td style="vertical-align:top;">:</td><td><div>set([&#x27;/home/nadia/Desktop/web2py/applications/Perla_Robe_V2/&#x27;, &#x27;/home/nadia/Desktop/web2py/applications/admin/&#x27;, &#x27;/home/nadia/Desktop/web2py/applications/Perla_V6/&#x27;, &#x27;/home/nadia/Desktop/web2py/applications/welcome/&#x27;])</div></td></tr><tr><td style="font-weight:bold;vertical-align:top;">applications_parent</td><td style="vertical-align:top;">:</td><td><div>/home/nadia/Desktop/web2py</div></td></tr><tr><td style="font-weight:bold;vertical-align:top;">cmd_args</td><td style="vertical-align:top;">:</td><td><div><table></table></div></td></tr><tr><td style="font-weight:bold;vertical-align:top;">cmd_options</td><td style="vertical-align:top;">:</td><td><div>&lt;Values at 0x7ffb642263f8: {&#x27;verbose&#x27;: False, &#x27;ip&#x27;: &#x27;127.0.0.1&#x27;, &#x27;debuglevel&#x27;: 30, &#x27;with_scheduler&#x27;: False, &#x27;shutdown_timeout&#x27;: 5, &#x27;taskbar&#x27;: False, &#x27;with_coverage&#x27;: False, &#x27;pid_filename&#x27;: &#x27;httpserver.pid&#x27;, &#x27;maxthreads&#x27;: None, &#x27;softcron&#x27;: False, &#x27;server_name&#x27;: &#x27;nadia-Lenovo-B50-10&#x27;, &#x27;bpython&#x27;: False, &#x27;nogui&#x27;: False, &#x27;port&#x27;: 8000, &#x27;print_errors&#x27;: False, &#x27;extcron&#x27;: False, &#x27;runcron&#x27;: False, &#x27;run_system_tests&#x27;: False, &#x27;test&#x27;: None, &#x27;folder&#x27;: &#x27;/home/nadia/Desktop/web2py&#x27;, &#x27;config&#x27;: &#x27;&#x27;, &#x27;minthreads&#x27;: None, &#x27;shell&#x27;: None, &#x27;run&#x27;: &#x27;&#x27;, &#x27;log_filename&#x27;: &#x27;httpserver.log&#x27;, &#x27;profiler_dir&#x27;: None, &#x27;args&#x27;: [&#x27;&#x27;], &#x27;socket_timeout&#x27;: 5, &#x27;ssl_ca_certificate&#x27;: None, &#x27;scheduler&#x27;: None, &#x27;interfaces&#x27;: None, &#x27;ssl_private_key&#x27;: &#x27;&#x27;, &#x27;gae&#x27;: None, &#x27;password&#x27;: &#x27;******&#x27;, &#x27;request_queue_size&#x27;: 5, &#x27;ssl_certificate&#x27;: &#x27;&#x27;, &#x27;cronjob&#x27;: False, &#x27;numthreads&#x27;: None, &#x27;quiet&#x27;: False, &#x27;import_models&#x27;: False, &#x27;timeout&#x27;: 10, &#x27;plain&#x27;: False, &#x27;nobanner&#x27;: False}&gt;</div></td></tr><tr><td style="font-weight:bold;vertical-align:top;">db_sessions</td><td style="vertical-align:top;">:</td><td><div>set([])</div></td></tr><tr><td style="font-weight:bold;vertical-align:top;">debugging</td><td style="vertical-align:top;">:</td><td><div>False</div></td></tr><tr><td style="font-weight:bold;vertical-align:top;">gluon_parent</td><td style="vertical-align:top;">:</td><td><div>/home/nadia/Desktop/web2py</div></td></tr><tr><td style="font-weight:bold;vertical-align:top;">is_jython</td><td style="vertical-align:top;">:</td><td><div>False</div></td></tr><tr><td style="font-weight:bold;vertical-align:top;">is_pypy</td><td style="vertical-align:top;">:</td><td><div>False</div></td></tr><tr><td style="font-weight:bold;vertical-align:top;">is_source</td><td style="vertical-align:top;">:</td><td><div>True</div></td></tr><tr><td style="font-weight:bold;vertical-align:top;">local_hosts</td><td style="vertical-align:top;">:</td><td><div><table><tr><td><div>nadia-Lenovo-B50-10</div></td></tr><tr><td><div>::1</div></td></tr><tr><td><div>127.0.1.1</div></td></tr><tr><td><div>::ffff:127.0.0.1</div></td></tr><tr><td><div>127.0.0.1</div></td></tr></table></div></td></tr><tr><td style="font-weight:bold;vertical-align:top;">web2py_version</td><td style="vertical-align:top;">:</td><td><div>2.14.6-stable+timestamp.2016.05.10.00.21.47</div></td></tr></table></div></td></tr><tr><td style="font-weight:bold;vertical-align:top;">is_https</td><td style="vertical-align:top;">:</td><td><div>False</div></td></tr><tr><td style="font-weight:bold;vertical-align:top;">is_local</td><td style="vertical-align:top;">:</td><td><div>True</div></td></tr><tr><td style="font-weight:bold;vertical-align:top;">is_restful</td><td style="vertical-align:top;">:</td><td><div>False</div></td></tr><tr><td style="font-weight:bold;vertical-align:top;">is_scheduler</td><td style="vertical-align:top;">:</td><td><div>False</div></td></tr><tr><td style="font-weight:bold;vertical-align:top;">is_shell</td><td style="vertical-align:top;">:</td><td><div>False</div></td></tr><tr><td style="font-weight:bold;vertical-align:top;">now</td><td style="vertical-align:top;">:</td><td><div>datetime.datetime(2018, 3, 20, 15, 21, 29, 428928)</div></td></tr><tr><td style="font-weight:bold;vertical-align:top;">raw_args</td><td style="vertical-align:top;">:</td><td><div>images/icon1.png</div></td></tr><tr><td style="font-weight:bold;vertical-align:top;">raw_extension</td><td style="vertical-align:top;">:</td><td><div>None</div></td></tr><tr><td style="font-weight:bold;vertical-align:top;">url</td><td style="vertical-align:top;">:</td><td><div>/Perla_V6/default/vue/images/icon1.png</div></td></tr><tr><td style="font-weight:bold;vertical-align:top;">utcnow</td><td style="vertical-align:top;">:</td><td><div>datetime.datetime(2018, 3, 20, 14, 21, 29, 428964)</div></td></tr><tr><td style="font-weight:bold;vertical-align:top;">wsgi</td><td style="vertical-align:top;">:</td><td><div>&lt;gluon.main.LazyWSGI object at 0x7ffb2ad96550&gt;</div></td></tr></table></div>'
tRp58
sS'frames'
p59
(lp60
(dp61
S'file'
p62
S'/home/nadia/Desktop/web2py/gluon/restricted.py'
p63
sS'dump'
p64
(dp65
S'environment'
p66
S"{'A': <class 'gluon.html.A'>, 'ANY_OF': <class 'gluon.validators.ANY_OF'>, 'ASSIGNJS': <function ASSIGNJS>, 'AppConfig': <function AppConfig>, 'Auth': <class 'gluon.tools.Auth'>, 'B': <class 'gluon.html.B'>, 'BEAUTIFY': <class 'gluon.html.BEAUTIFY'>, 'BODY': <class 'gluon.html.BODY'>, 'BR': <class 'gluon.html.BR'>, 'BUTTON': <class 'gluon.html.BUTTON'>, ...}"
p67
sS'ccode'
p68
S'<code object <module> at 0x7ffb2aa6aeb0, file "/...cations/Perla_V6/views/default/vue.html", line 1>'
p69
ssS'lnum'
p70
I227
sS'lines'
p71
(dp72
I224
S'            ccode = code'
p73
sI225
S'        else:'
p74
sI226
S'            ccode = compile2(code, layer)'
p75
sI227
S'        exec ccode in environment'
p76
sI228
S'    except HTTP:'
p77
sI229
S'        raise'
p78
sI230
S'    except RestrictedError:'
p79
sI231
S'        # do not encapsulate (obfuscate) the original RestrictedError'
p80
sI222
S'    try:'
p81
sI223
S'        if isinstance(code, types.CodeType):'
p82
ssS'call'
p83
S'(code="response.write(\'<!--\\\\nAuthor: W3layouts\\\\nAuthor ... escape=False)\\nresponse.write(\'\\\\n\', escape=False)", environment={\'A\': <class \'gluon.html.A\'>, \'ANY_OF\': <class \'gluon.validators.ANY_OF\'>, \'ASSIGNJS\': <function ASSIGNJS>, \'AppConfig\': <function AppConfig>, \'Auth\': <class \'gluon.tools.Auth\'>, \'B\': <class \'gluon.html.B\'>, \'BEAUTIFY\': <class \'gluon.html.BEAUTIFY\'>, \'BODY\': <class \'gluon.html.BODY\'>, \'BR\': <class \'gluon.html.BR\'>, \'BUTTON\': <class \'gluon.html.BUTTON\'>, ...}, layer=\'/home/nadia/Desktop/web2py/applications/Perla_V6/views/default/vue.html\')'
p84
sS'func'
p85
S'restricted'
p86
sa(dp87
g62
S'/home/nadia/Desktop/web2py/applications/Perla_V6/views/default/vue.html'
p88
sg64
(dp89
S'div'
p90
S'undefined'
p91
ssg70
I162
sg71
(dp92
I160
S'    pass'
p93
sI161
S'response.write(\'\\n\\t\\t\\t\\t\\t\\t<div class="clearfix crop"></div>\\n\\t\\t\\t\\t    <p>\', escape=False)'
p94
sI162
S'response.write(MARKMIN(caf.descriptif))'
p95
sI163
S'response.write(\'</p>\\n\\t\\t\\t\\t\\t</div>\\n\\t\\t\\t\\t\\t<div class="span span1">\\n\\t\\t\\t\\t\\t\\t<p class="left">FABRIC ORIGIN</p>\\n\\t\\t\\t\\t\\t\\t<p class="right">\', escape=False)'
p96
sI164
S'response.write(caf.couleur.capitalize())'
p97
sI165
S'response.write(\'</p>\\n\\t\\t\\t\\t\\t\\t<div class="clearfix"></div>\\n\\t\\t\\t\\t\\t</div>\\n\\t\\t\\t\\t\\t<div class="span span2">\\n\\t\\t\\t\\t\\t\\t<p class="left">MADE IN</p>\\n\\t\\t\\t\\t\\t\\t<p class="right">\', escape=False)'
p98
sI166
S'response.write(caf.fabrique.capitalize())'
p99
sI167
S'response.write(\'</p>\\n\\t\\t\\t\\t\\t\\t<div class="clearfix"></div>\\n\\t\\t\\t\\t\\t</div>\\n\\t\\t\\t\\t\\t<div class="span span3">\\n\\t\\t\\t\\t\\t\\t<p class="left">COLOR</p>\\n\\t\\t\\t\\t\\t\\t<p class="right">\', escape=False)'
p100
sI168
S'response.write(caf.couleur.capitalize())'
p101
sI169
S'response.write(\'</p>\\n\\t\\t\\t\\t\\t\\t<div class="clearfix"></div>\\n\\t\\t\\t\\t\\t</div>\\n\\t\\t\\t\\t\\t<div class="span span4">\\n\\t\\t\\t\\t\\t\\t<p class="left">SIZE</p>\\n\\t\\t\\t\\t\\t\\t<p class="right"><span class="selection-box"><select class="domains valid" name="domains">\\n\\t\\t\\t\\t\\t\\t\\t\\t\\t\\t   <option>M</option>\\n\\t\\t\\t\\t\\t\\t\\t\\t\\t\\t   <option>L</option>\\n\\t\\t\\t\\t\\t\\t\\t\\t\\t\\t   <option>XL</option>\\n\\t\\t\\t\\t\\t\\t\\t\\t\\t\\t   <option>FS</option>\\n\\t\\t\\t\\t\\t\\t\\t\\t\\t\\t   <option>S</option>\\n\\t\\t\\t\\t\\t\\t\\t\\t\\t   </select></span></p>\\n\\t\\t\\t\\t\\t\\t<div class="clearfix"></div>\\n\\t\\t\\t\\t\\t</div>\\n\\t\\t\\t\\t\\t<div class="purchase">\\n\\t\\t\\t\\t\\t\\t<a href="#">Achetez Maintenant</a>\\n            \', escape=False)'
p102
sI170
S'pass'
p103
sI171
S'response.write(\'\\n\\t\\t\\t\\t\\t\\t<div class="social-icons">\\n\\t\\t\\t\\t\\t\\t\\t<ul>\\n\\t\\t\\t\\t\\t\\t\\t\\t<li><a class="facebook1" href="#"></a></li>\\n\\t\\t\\t\\t\\t\\t\\t\\t<li><a class="twitter1" href="#"></a></li>\\n\\t\\t\\t\\t\\t\\t\\t\\t<li><a class="googleplus1" href="#"></a></li>\\n\\t\\t\\t\\t\\t\\t\\t</ul>\\n\\t\\t\\t\\t\\t\\t</div>\\n\\t\\t\\t\\t\\t\\t<div class="clearfix"></div>\\n\\t\\t\\t\\t\\t</div>\\n\\t\\t\\t\\t<script src="\', escape=False)'
p104
sI172
S"response.write(URL('static', 'js/imagezoom.js'))"
p105
sI153
S'    response.write(\'">\\n\\t\\t\\t\\t\\t\\t\\t<div class="thumb-image"> <img src="\', escape=False)'
p106
sI154
S"    response.write(URL('download',args=caf.photo3))"
p107
sI155
S'    response.write(\'" data-imagezoom="true" class="img-responsive" alt="" /> </div>\\n\\t\\t\\t\\t\\t\\t\\t</li>\\n\\t\\t\\t\\t\\t\\t</ul>\\n\\t\\t\\t\\t\\t</div>\\n\\t\\t\\t\\t</div>\\n\\t\\t\\t\\t<div class="col-md-7 dress-info">\\n\\t\\t\\t\\t\\t<div class="dress-name">\\n\\t\\t\\t\\t\\t\\t<h3>\', escape=False)'
p108
sI156
S'    response.write(caf.nom)'
p109
sI157
S"    response.write('</h3>\\n\\t\\t\\t\\t\\t\\t<span>\\xe2\\x82\\xac', escape=False)"
p110
sI158
S'    response.write(caf.prix_total)'
p111
sI159
S"    response.write('</span>\\n                ', escape=False)"
p112
ssg83
S'()'
p113
sg85
S'<module>'
p114
sasS'pyver'
p115
S'Python 2.7.12: /usr/bin/python (prefix: /usr)'
p116
sS'session'
p117
g57
(S'sF\x02\x00\x00<div><table><tr><td style="font-weight:bold;vertical-align:top;">cart</td><td style="vertical-align:top;">:</td><td><div><table></table></div></td></tr><tr><td style="font-weight:bold;vertical-align:top;">flash</td><td style="vertical-align:top;">:</td><td><div>None</div></td></tr><tr><td style="font-weight:bold;vertical-align:top;">last_orderby</td><td style="vertical-align:top;">:</td><td><div>None</div></td></tr><tr><td style="font-weight:bold;vertical-align:top;">last_query</td><td style="vertical-align:top;">:</td><td><div>db.produit.id&gt;0</div></td></tr></table></div>'
tRp118
sS'etype'
p119
S"<type 'exceptions.NameError'>"
p120
sS'date'
p121
S'Tue Mar 20 15:21:29 2018'
p122
sS'response'
p123
g57
(S's\xd6?\x00\x00<div><table><tr><td style="font-weight:bold;vertical-align:top;">body</td><td style="vertical-align:top;">:</td><td><div>&lt;cStringIO.StringO object at 0x7ffb2ade56c0&gt;</div></td></tr><tr><td style="font-weight:bold;vertical-align:top;">cookies</td><td style="vertical-align:top;">:</td><td><div><table><tr><td style="font-weight:bold;vertical-align:top;">session_id_perla_v6</td><td style="vertical-align:top;">:</td><td><div>127.0.0.1-2dc41589-a042-4512-99fc-7879b930bb44<table><tr><td style="font-weight:bold;vertical-align:top;">comment</td><td style="vertical-align:top;">:</td><td><div></div></td></tr><tr><td style="font-weight:bold;vertical-align:top;">domain</td><td style="vertical-align:top;">:</td><td><div></div></td></tr><tr><td style="font-weight:bold;vertical-align:top;">expires</td><td style="vertical-align:top;">:</td><td><div></div></td></tr><tr><td style="font-weight:bold;vertical-align:top;">httponly</td><td style="vertical-align:top;">:</td><td><div></div></td></tr><tr><td style="font-weight:bold;vertical-align:top;">max-age</td><td style="vertical-align:top;">:</td><td><div></div></td></tr><tr><td style="font-weight:bold;vertical-align:top;">path</td><td style="vertical-align:top;">:</td><td><div>/</div></td></tr><tr><td style="font-weight:bold;vertical-align:top;">secure</td><td style="vertical-align:top;">:</td><td><div></div></td></tr><tr><td style="font-weight:bold;vertical-align:top;">version</td><td style="vertical-align:top;">:</td><td><div></div></td></tr></table></div></td></tr></table></div></td></tr><tr><td style="font-weight:bold;vertical-align:top;">delimiters</td><td style="vertical-align:top;">:</td><td><div><table><tr><td><div>{{</div></td></tr><tr><td><div>}}</div></td></tr></table></div></td></tr><tr><td style="font-weight:bold;vertical-align:top;">files</td><td style="vertical-align:top;">:</td><td><div><table></table></div></td></tr><tr><td style="font-weight:bold;vertical-align:top;">flash</td><td style="vertical-align:top;">:</td><td><div></div></td></tr><tr><td style="font-weight:bold;vertical-align:top;">form_label_separator</td><td style="vertical-align:top;">:</td><td><div></div></td></tr><tr><td style="font-weight:bold;vertical-align:top;">formstyle</td><td style="vertical-align:top;">:</td><td><div>bootstrap3_inline</div></td></tr><tr><td style="font-weight:bold;vertical-align:top;">generic_patterns</td><td style="vertical-align:top;">:</td><td><div><table><tr><td><div>*</div></td></tr></table></div></td></tr><tr><td style="font-weight:bold;vertical-align:top;">google_analytics_id</td><td style="vertical-align:top;">:</td><td><div>None</div></td></tr><tr><td style="font-weight:bold;vertical-align:top;">headers</td><td style="vertical-align:top;">:</td><td><div><table><tr><td style="font-weight:bold;vertical-align:top;">X-Powered-By</td><td style="vertical-align:top;">:</td><td><div>web2py</div></td></tr></table></div></td></tr><tr><td style="font-weight:bold;vertical-align:top;">logo</td><td style="vertical-align:top;">:</td><td><div><a class="navbar-brand" href="http://www.web2py.com/" id="web2py-logo"><b>web<span>2</span>py</b>&trade;&nbsp;</a></div></td></tr><tr><td style="font-weight:bold;vertical-align:top;">menu</td><td style="vertical-align:top;">:</td><td><div><table><tr><td><div><table><tr><td><div>Accueil</div></td></tr><tr><td><div>False</div></td></tr><tr><td><div>/Perla_V6/default/index</div></td></tr><tr><td><div><table></table></div></td></tr></table></div></td></tr><tr><td><div><table><tr><td><div>Mes sites</div></td></tr><tr><td><div>False</div></td></tr><tr><td><div>/admin/default/site</div></td></tr></table></div></td></tr><tr><td><div><table><tr><td><div>Cette Appli</div></td></tr><tr><td><div>False</div></td></tr><tr><td><div>#</div></td></tr><tr><td><div><table><tr><td><div><table><tr><td><div>Design</div></td></tr><tr><td><div>False</div></td></tr><tr><td><div>/admin/default/design/Perla_V6</div></td></tr></table></div></td></tr><tr><td><div><li class="divider"></li></div></td></tr><tr><td><div><table><tr><td><div>Contr\xc3\xb4leur</div></td></tr><tr><td><div>False</div></td></tr><tr><td><div>/admin/default/edit/Perla_V6/controllers/default.py</div></td></tr></table></div></td></tr><tr><td><div><table><tr><td><div>Pr\xc3\xa9sentation</div></td></tr><tr><td><div>False</div></td></tr><tr><td><div>/admin/default/edit/Perla_V6/views/default/vue.html</div></td></tr></table></div></td></tr><tr><td><div><table><tr><td><div>Mod\xc3\xa8le BDD</div></td></tr><tr><td><div>False</div></td></tr><tr><td><div>/admin/default/edit/Perla_V6/models/db.py</div></td></tr></table></div></td></tr><tr><td><div><table><tr><td><div>Menu mod\xc3\xa8le</div></td></tr><tr><td><div>False</div></td></tr><tr><td><div>/admin/default/edit/Perla_V6/models/menu.py</div></td></tr></table></div></td></tr><tr><td><div><table><tr><td><div>Config.ini</div></td></tr><tr><td><div>False</div></td></tr><tr><td><div>/admin/default/edit/Perla_V6/private/appconfig.ini</div></td></tr></table></div></td></tr><tr><td><div><table><tr><td><div>Mise en page</div></td></tr><tr><td><div>False</div></td></tr><tr><td><div>/admin/default/edit/Perla_V6/views/layout.html</div></td></tr></table></div></td></tr><tr><td><div><table><tr><td><div>Feuille de style</div></td></tr><tr><td><div>False</div></td></tr><tr><td><div>/admin/default/edit/Perla_V6/static/css/web2py-bootstrap3.css</div></td></tr></table></div></td></tr><tr><td><div><table><tr><td><div>base de donn\xc3\xa9es</div></td></tr><tr><td><div>False</div></td></tr><tr><td><div>/Perla_V6/appadmin/index</div></td></tr></table></div></td></tr><tr><td><div><table><tr><td><div>Erreurs</div></td></tr><tr><td><div>False</div></td></tr><tr><td><div>/admin/default/errors/Perla_V6</div></td></tr></table></div></td></tr><tr><td><div><table><tr><td><div>\xc3\x80 propos</div></td></tr><tr><td><div>False</div></td></tr><tr><td><div>/admin/default/about/Perla_V6</div></td></tr></table></div></td></tr></table></div></td></tr></table></div></td></tr><tr><td><div><table><tr><td><div>web2py.com</div></td></tr><tr><td><div>False</div></td></tr><tr><td><div>#</div></td></tr><tr><td><div><table><tr><td><div><table><tr><td><div>T\xc3\xa9l\xc3\xa9chargement</div></td></tr><tr><td><div>False</div></td></tr><tr><td><div>http://www.web2py.com/examples/default/download</div></td></tr></table></div></td></tr><tr><td><div><table><tr><td><div>Support</div></td></tr><tr><td><div>False</div></td></tr><tr><td><div>http://www.web2py.com/examples/default/support</div></td></tr></table></div></td></tr><tr><td><div><table><tr><td><div>D\xc3\xa9mo</div></td></tr><tr><td><div>False</div></td></tr><tr><td><div>http://web2py.com/demo_admin</div></td></tr></table></div></td></tr><tr><td><div><table><tr><td><div>Exemples Rapides</div></td></tr><tr><td><div>False</div></td></tr><tr><td><div>http://web2py.com/examples/default/examples</div></td></tr></table></div></td></tr><tr><td><div><table><tr><td><div>FAQ</div></td></tr><tr><td><div>False</div></td></tr><tr><td><div>http://web2py.com/AlterEgo</div></td></tr></table></div></td></tr><tr><td><div><table><tr><td><div>Vid\xc3\xa9os</div></td></tr><tr><td><div>False</div></td></tr><tr><td><div>http://www.web2py.com/examples/default/videos/</div></td></tr></table></div></td></tr><tr><td><div><table><tr><td><div>Applications gratuites</div></td></tr><tr><td><div>False</div></td></tr><tr><td><div>http://web2py.com/appliances</div></td></tr></table></div></td></tr><tr><td><div><table><tr><td><div>Plugins</div></td></tr><tr><td><div>False</div></td></tr><tr><td><div>http://web2py.com/plugins</div></td></tr></table></div></td></tr><tr><td><div><table><tr><td><div>Recettes</div></td></tr><tr><td><div>False</div></td></tr><tr><td><div>http://web2pyslices.com/</div></td></tr></table></div></td></tr></table></div></td></tr></table></div></td></tr><tr><td><div><table><tr><td><div>Documentation</div></td></tr><tr><td><div>False</div></td></tr><tr><td><div>#</div></td></tr><tr><td><div><table><tr><td><div><table><tr><td><div>Online book</div></td></tr><tr><td><div>False</div></td></tr><tr><td><div>http://www.web2py.com/book</div></td></tr></table></div></td></tr><tr><td><div><li class="divider"></li></div></td></tr><tr><td><div><table><tr><td><div>Pr\xc3\xa9face</div></td></tr><tr><td><div>False</div></td></tr><tr><td><div>http://www.web2py.com/book/default/chapter/00</div></td></tr></table></div></td></tr><tr><td><div><table><tr><td><div>Introduction</div></td></tr><tr><td><div>False</div></td></tr><tr><td><div>http://www.web2py.com/book/default/chapter/01</div></td></tr></table></div></td></tr><tr><td><div><table><tr><td><div>Python</div></td></tr><tr><td><div>False</div></td></tr><tr><td><div>http://www.web2py.com/book/default/chapter/02</div></td></tr></table></div></td></tr><tr><td><div><table><tr><td><div>Pr\xc3\xa9sentation</div></td></tr><tr><td><div>False</div></td></tr><tr><td><div>http://www.web2py.com/book/default/chapter/03</div></td></tr></table></div></td></tr><tr><td><div><table><tr><td><div>Le noyau</div></td></tr><tr><td><div>False</div></td></tr><tr><td><div>http://www.web2py.com/book/default/chapter/04</div></td></tr></table></div></td></tr><tr><td><div><table><tr><td><div>Les Vues</div></td></tr><tr><td><div>False</div></td></tr><tr><td><div>http://www.web2py.com/book/default/chapter/05</div></td></tr></table></div></td></tr><tr><td><div><table><tr><td><div>base de donn\xc3\xa9es</div></td></tr><tr><td><div>False</div></td></tr><tr><td><div>http://www.web2py.com/book/default/chapter/06</div></td></tr></table></div></td></tr><tr><td><div><table><tr><td><div>Formulaires et Validateurs</div></td></tr><tr><td><div>False</div></td></tr><tr><td><div>http://www.web2py.com/book/default/chapter/07</div></td></tr></table></div></td></tr><tr><td><div><table><tr><td><div>Email et SMS</div></td></tr><tr><td><div>False</div></td></tr><tr><td><div>http://www.web2py.com/book/default/chapter/08</div></td></tr></table></div></td></tr><tr><td><div><table><tr><td><div>Contr\xc3\xb4le d\'acc\xc3\xa8s</div></td></tr><tr><td><div>False</div></td></tr><tr><td><div>http://www.web2py.com/book/default/chapter/09</div></td></tr></table></div></td></tr><tr><td><div><table><tr><td><div>Services</div></td></tr><tr><td><div>False</div></td></tr><tr><td><div>http://www.web2py.com/book/default/chapter/10</div></td></tr></table></div></td></tr><tr><td><div><table><tr><td><div>Recettes Ajax</div></td></tr><tr><td><div>False</div></td></tr><tr><td><div>http://www.web2py.com/book/default/chapter/11</div></td></tr></table></div></td></tr><tr><td><div><table><tr><td><div>Composants et Plugins</div></td></tr><tr><td><div>False</div></td></tr><tr><td><div>http://www.web2py.com/book/default/chapter/12</div></td></tr></table></div></td></tr><tr><td><div><table><tr><td><div>Recettes de d\xc3\xa9ploiement</div></td></tr><tr><td><div>False</div></td></tr><tr><td><div>http://www.web2py.com/book/default/chapter/13</div></td></tr></table></div></td></tr><tr><td><div><table><tr><td><div>Autres recettes</div></td></tr><tr><td><div>False</div></td></tr><tr><td><div>http://www.web2py.com/book/default/chapter/14</div></td></tr></table></div></td></tr><tr><td><div><table><tr><td><div>Helping web2py</div></td></tr><tr><td><div>False</div></td></tr><tr><td><div>http://www.web2py.com/book/default/chapter/15</div></td></tr></table></div></td></tr><tr><td><div><table><tr><td><div>Buy web2py\'s book</div></td></tr><tr><td><div>False</div></td></tr><tr><td><div>http://stores.lulu.com/web2py</div></td></tr></table></div></td></tr></table></div></td></tr></table></div></td></tr><tr><td><div><table><tr><td><div>Communaut\xc3\xa9</div></td></tr><tr><td><div>False</div></td></tr><tr><td><div>None</div></td></tr><tr><td><div><table><tr><td><div><table><tr><td><div>Groupes</div></td></tr><tr><td><div>False</div></td></tr><tr><td><div>http://www.web2py.com/examples/default/usergroups</div></td></tr></table></div></td></tr><tr><td><div><table><tr><td><div>Twitter</div></td></tr><tr><td><div>False</div></td></tr><tr><td><div>http://twitter.com/web2py</div></td></tr></table></div></td></tr><tr><td><div><table><tr><td><div>Chat en direct</div></td></tr><tr><td><div>False</div></td></tr><tr><td><div>http://webchat.freenode.net/?channels=web2py</div></td></tr></table></div></td></tr></table></div></td></tr></table></div></td></tr></table></div></td></tr><tr><td style="font-weight:bold;vertical-align:top;">meta</td><td style="vertical-align:top;">:</td><td><div><table><tr><td style="font-weight:bold;vertical-align:top;">author</td><td style="vertical-align:top;">:</td><td><div>Your Name &lt;you@example.com&gt;</div></td></tr><tr><td style="font-weight:bold;vertical-align:top;">description</td><td style="vertical-align:top;">:</td><td><div>a cool new app</div></td></tr><tr><td style="font-weight:bold;vertical-align:top;">generator</td><td style="vertical-align:top;">:</td><td><div>Web2py Web Framework</div></td></tr><tr><td style="font-weight:bold;vertical-align:top;">keywords</td><td style="vertical-align:top;">:</td><td><div><table><tr><td><div>web2py</div></td></tr><tr><td><div>python</div></td></tr><tr><td><div>framework</div></td></tr></table></div></td></tr></table></div></td></tr><tr><td style="font-weight:bold;vertical-align:top;">models_to_run</td><td style="vertical-align:top;">:</td><td><div><table><tr><td><div>^\\w+\\.py$</div></td></tr><tr><td><div>^default/\\w+\\.py$</div></td></tr><tr><td><div>^default/vue/\\w+\\.py$</div></td></tr></table></div></td></tr><tr><td style="font-weight:bold;vertical-align:top;">postprocessing</td><td style="vertical-align:top;">:</td><td><div><table></table></div></td></tr><tr><td style="font-weight:bold;vertical-align:top;">session_client</td><td style="vertical-align:top;">:</td><td><div>127.0.0.1</div></td></tr><tr><td style="font-weight:bold;vertical-align:top;">session_cookie_compression_level</td><td style="vertical-align:top;">:</td><td><div>None</div></td></tr><tr><td style="font-weight:bold;vertical-align:top;">session_cookie_expires</td><td style="vertical-align:top;">:</td><td><div>None</div></td></tr><tr><td style="font-weight:bold;vertical-align:top;">session_data_name</td><td style="vertical-align:top;">:</td><td><div>session_data_perla_v6</div></td></tr><tr><td style="font-weight:bold;vertical-align:top;">session_file</td><td style="vertical-align:top;">:</td><td><div>&lt;open file &#x27;/home/nadia/Desktop/web2py/applications/Perla_V6/sessions/034/0bf/127.0.0.1-2dc41589-a042-4512-99fc-7879b930bb44&#x27;, mode &#x27;rb+&#x27; at 0x7ffb2ae1e930&gt;</div></td></tr><tr><td style="font-weight:bold;vertical-align:top;">session_filename</td><td style="vertical-align:top;">:</td><td><div>/home/nadia/Desktop/web2py/applications/Perla_V6/sessions/127.0.0.1-2dc41589-a042-4512-99fc-7879b930bb44</div></td></tr><tr><td style="font-weight:bold;vertical-align:top;">session_hash</td><td style="vertical-align:top;">:</td><td><div>abe4f671ea632d0ee50d406ddba9f513</div></td></tr><tr><td style="font-weight:bold;vertical-align:top;">session_id</td><td style="vertical-align:top;">:</td><td><div>127.0.0.1-2dc41589-a042-4512-99fc-7879b930bb44</div></td></tr><tr><td style="font-weight:bold;vertical-align:top;">session_id_name</td><td style="vertical-align:top;">:</td><td><div>session_id_perla_v6</div></td></tr><tr><td style="font-weight:bold;vertical-align:top;">session_locked</td><td style="vertical-align:top;">:</td><td><div>True</div></td></tr><tr><td style="font-weight:bold;vertical-align:top;">session_masterapp</td><td style="vertical-align:top;">:</td><td><div>Perla_V6</div></td></tr><tr><td style="font-weight:bold;vertical-align:top;">session_new</td><td style="vertical-align:top;">:</td><td><div>False</div></td></tr><tr><td style="font-weight:bold;vertical-align:top;">session_storage_type</td><td style="vertical-align:top;">:</td><td><div>file</div></td></tr><tr><td style="font-weight:bold;vertical-align:top;">status</td><td style="vertical-align:top;">:</td><td><div>200</div></td></tr><tr><td style="font-weight:bold;vertical-align:top;">subtitle</td><td style="vertical-align:top;">:</td><td><div></div></td></tr><tr><td style="font-weight:bold;vertical-align:top;">title</td><td style="vertical-align:top;">:</td><td><div>Perla V6</div></td></tr><tr><td style="font-weight:bold;vertical-align:top;">view</td><td style="vertical-align:top;">:</td><td><div>default/vue.html</div></td></tr></table></div>'
tRp124
sS'locals'
p125
(dp126
S'Service'
p127
S"<class 'gluon.tools.Service'>"
p128
sS'taille'
p129
S"['M', 'L', 'XL', 'FS', 'S']"
p130
sS'OBJECT'
p131
S"<class 'gluon.html.OBJECT'>"
p132
sS'SQLDB'
p133
S"<class 'pydal.base.DAL'>"
p134
sg117
S"<Storage {'_formkey[produit/18]': ['728ca315-9ee.../25]': ['fbec53f4-8203-40fd-9a0f-547f50061b3a']}>"
p135
sS'LINK'
p136
S"<class 'gluon.html.LINK'>"
p137
sS'BR'
p138
S"<class 'gluon.html.BR'>"
p139
sS'local_import'
p140
S'<function <lambda>>'
p141
sS'OPTGROUP'
p142
S"<class 'gluon.html.OPTGROUP'>"
p143
sS'__package__'
p144
S'None'
p145
sS'OPTION'
p146
S"<class 'gluon.html.OPTION'>"
p147
sS'PRE'
p148
S"<class 'gluon.html.PRE'>"
p149
sS'IS_INT_IN_RANGE'
p150
S"<class 'gluon.validators.IS_INT_IN_RANGE'>"
p151
sS'IS_LOWER'
p152
S"<class 'gluon.validators.IS_LOWER'>"
p153
sS'IS_STRONG'
p154
S"<class 'gluon.validators.IS_STRONG'>"
p155
sS'cache'
p156
S'<gluon.cache.Cache object>'
p157
sS'IS_IN_DB'
p158
S"<class 'gluon.validators.IS_IN_DB'>"
p159
sS'TAG'
p160
S'<gluon.html.__TAG__ object>'
p161
sS'SQLField'
p162
S"<class 'pydal.objects.Field'>"
p163
sS'mail'
p164
S'<gluon.tools.Mail object>'
p165
sS'BODY'
p166
S"<class 'gluon.html.BODY'>"
p167
sS'IS_DATE_IN_RANGE'
p168
S"<class 'gluon.validators.IS_DATE_IN_RANGE'>"
p169
sS'IFRAME'
p170
S"<class 'gluon.html.IFRAME'>"
p171
sS'URL'
p172
S'<function URL>'
p173
sS'__file__'
p174
S"'/home/nadia/Desktop/web2py/applications/Perla_V6/views/default/vue.html'"
p175
sS'STRIPE_SECRET_KEY'
p176
S"'sk_test_YtPnpNdpBoMbXMuVn5lCDPTy'"
p177
sS'db'
p178
S'<DAL uri="sqlite://storage.sqlite">'
p179
sS'auth'
p180
S'<gluon.tools.Auth object>'
p181
sS'P'
S"<class 'gluon.html.P'>"
p182
sS'TFOOT'
p183
S"<class 'gluon.html.TFOOT'>"
p184
sS'XHTML'
p185
S"<class 'gluon.html.XHTML'>"
p186
sS'ON'
p187
S'True'
p188
sS'OL'
p189
S"<class 'gluon.html.OL'>"
p190
sS'TEXTAREA'
p191
S"<class 'gluon.html.TEXTAREA'>"
p192
sS'MENU'
p193
S"<class 'gluon.html.MENU'>"
p194
sS'form3'
p195
S'<gluon.sqlhtml.SQLFORM object>'
p196
sS'IS_IMAGE'
p197
S"<class 'gluon.validators.IS_IMAGE'>"
p198
sS'EM'
p199
S"<class 'gluon.html.EM'>"
p200
sS'CODE'
p201
S"<class 'gluon.html.CODE'>"
p202
sS'HTTP'
p203
S"<class 'gluon.http.HTTP'>"
p204
sS'HR'
p205
S"<class 'gluon.html.HR'>"
p206
sS'IS_DATETIME'
p207
S"<class 'gluon.validators.IS_DATETIME'>"
p208
sS'STYLE'
p209
S"<class 'gluon.html.STYLE'>"
p210
sS'LABEL'
p211
S"<class 'gluon.html.LABEL'>"
p212
sS'CLEANUP'
p213
S"<class 'gluon.validators.CLEANUP'>"
p214
sS'plugins'
p215
S'<gluon.tools.PluginManager object>'
p216
sS'SELECT'
p217
S"<class 'gluon.html.SELECT'>"
p218
sS'CENTER'
p219
S"<class 'gluon.html.CENTER'>"
p220
sS'Auth'
p221
S"<class 'gluon.tools.Auth'>"
p222
sS'DEVELOPMENT_MENU'
p223
g188
sS'__builtins__'
p224
S"{'ArithmeticError': <type 'exceptions.ArithmeticError'>, 'AssertionError': <type 'exceptions.AssertionError'>, 'AttributeError': <type 'exceptions.AttributeError'>, 'BaseException': <type 'exceptions.BaseException'>, 'BufferError': <type 'exceptions.BufferError'>, 'BytesWarning': <type 'exceptions.BytesWarning'>, 'DeprecationWarning': <type 'exceptions.DeprecationWarning'>, 'EOFError': <type 'exceptions.EOFError'>, 'Ellipsis': Ellipsis, 'EnvironmentError': <type 'exceptions.EnvironmentError'>, ...}"
p225
sS'HTML'
p226
S"<class 'gluon.html.HTML'>"
p227
sS'SQLFORM'
p228
S"<class 'gluon.sqlhtml.SQLFORM'>"
p229
sS'LOAD'
p230
S'<function LOAD>'
p231
sS'redirect'
p232
S'<function redirect>'
p233
sS'widget'
p234
S'<function widget>'
p235
sS'FIELDSET'
p236
S"<class 'gluon.html.FIELDSET'>"
p237
sS'tags'
p238
S'<Rows (15)>'
p239
sS'IS_EQUAL_TO'
p240
S"<class 'gluon.validators.IS_EQUAL_TO'>"
p241
sS'produites'
p242
S"['Bijoux', 'Djellaba', 'accessoires', 'Caftan en location', 'Caftan en vente', 'Robe de soir\\xc3\\xa9e en location', 'Robe de soir\\xc3\\xa9e en vente', 'Caftan blanche', 'Guandoura']"
p243
sS'embed64'
p244
S'<function embed64>'
p245
sS'IS_LIST_OF'
p246
S"<class 'gluon.validators.IS_LIST_OF'>"
p247
sS'INPUT'
p248
S"<class 'gluon.html.INPUT'>"
p249
sS'EMBED'
p250
S"<class 'gluon.html.EMBED'>"
p251
sS'_'
S'<function _>'
p252
sS'myconf'
p253
S"{'forms': {'formstyle': 'bootstrap3_inline', 'se...': {'names': 'localhost:*, 127.0.0.1:*, *:*, *'}}"
p254
sS'IS_NOT_IN_DB'
p255
S"<class 'gluon.validators.IS_NOT_IN_DB'>"
p256
sS'H2'
p257
S"<class 'gluon.html.H2'>"
p258
sS'H3'
p259
S"<class 'gluon.html.H3'>"
p260
sS'AppConfig'
p261
S'<function AppConfig>'
p262
sS'H1'
p263
S"<class 'gluon.html.H1'>"
p264
sS'H6'
p265
S"<class 'gluon.html.H6'>"
p266
sS'H4'
p267
S"<class 'gluon.html.H4'>"
p268
sS'H5'
p269
S"<class 'gluon.html.H5'>"
p270
sS'UL'
p271
S"<class 'gluon.html.UL'>"
p272
sS'IS_UPPER'
p273
S"<class 'gluon.validators.IS_UPPER'>"
p274
sS'xmlescape'
p275
S'<function xmlescape>'
p276
sS'IS_TIME'
p277
S"<class 'gluon.validators.IS_TIME'>"
p278
sS'STRIPE_PUBLISHABLE_KEY'
p279
S"'pk_test_1NpWN5AY1GuqsjQALmfWhO24'"
p280
sS'TITLE'
p281
S"<class 'gluon.html.TITLE'>"
p282
sS'CRYPT'
p283
S"<class 'gluon.validators.CRYPT'>"
p284
sS'IS_EMPTY_OR'
p285
S"<class 'gluon.validators.IS_EMPTY_OR'>"
p286
sS'MARKMIN'
p287
S"<class 'gluon.html.MARKMIN'>"
p288
sS'__name__'
p289
S"'__restricted__'"
p290
sS'STRONG'
p291
S"<class 'gluon.html.STRONG'>"
p292
sS'COL'
p293
S"<class 'gluon.html.COL'>"
p294
sS'service'
p295
S'<gluon.tools.Service object>'
p296
sS'SCRIPT'
p297
S"<class 'gluon.html.SCRIPT'>"
p298
sS'name_of'
p299
S'<function name_of>'
p300
sS'User'
p301
S'<Table auth_user (id, first_name, last_name, ema...ey, reset_password_key, registration_id, mobile)>'
p302
sS'TABLE'
p303
S"<class 'gluon.html.TABLE'>"
p304
sS'IS_IPV4'
p305
S"<class 'gluon.validators.IS_IPV4'>"
p306
sS'IS_LENGTH'
p307
S"<class 'gluon.validators.IS_LENGTH'>"
p308
sS'IS_IPV6'
p309
S"<class 'gluon.validators.IS_IPV6'>"
p310
sS'XML'
p311
S"<class 'gluon.html.XML'>"
p312
sS'B'
S"<class 'gluon.html.B'>"
p313
sS'IMG'
p314
S"<class 'gluon.html.IMG'>"
p315
sS'SQLTABLE'
p316
S"<class 'gluon.sqlhtml.SQLTABLE'>"
p317
sS'IS_MATCH'
p318
S"<class 'gluon.validators.IS_MATCH'>"
p319
sS'IS_ALPHANUMERIC'
p320
S"<class 'gluon.validators.IS_ALPHANUMERIC'>"
p321
sS'caftans'
p322
S'<Rows (0)>'
p323
sS'me'
p324
S'None'
p325
sS'SPAN'
p326
S"<class 'gluon.html.SPAN'>"
p327
sS'IS_JSON'
p328
S"<class 'gluon.validators.IS_JSON'>"
p329
sS'IS_IPADDRESS'
p330
S"<class 'gluon.validators.IS_IPADDRESS'>"
p331
sS'IS_SLUG'
p332
S"<class 'gluon.validators.IS_SLUG'>"
p333
sS'BEAUTIFY'
p334
S"<class 'gluon.html.BEAUTIFY'>"
p335
sS'META'
p336
S"<class 'gluon.html.META'>"
p337
sS'BUTTON'
p338
S"<class 'gluon.html.BUTTON'>"
p339
sS'IS_DATE'
p340
S"<class 'gluon.validators.IS_DATE'>"
p341
sS'IS_EMAIL'
p342
S"<class 'gluon.validators.IS_EMAIL'>"
p343
sS'IS_NOT_EMPTY'
p344
S"<class 'gluon.validators.IS_NOT_EMPTY'>"
p345
sS'IS_FLOAT_IN_RANGE'
p346
S"<class 'gluon.validators.IS_FLOAT_IN_RANGE'>"
p347
sS'TBODY'
p348
S"<class 'gluon.html.TBODY'>"
p349
sS'CAT'
p350
S"<class 'gluon.html.CAT'>"
p351
sS'Field'
p352
S"<class 'pydal.objects.Field'>"
p353
sS'tag'
p354
S"<Row {'tag1': 'Takchita', 'tag2': 'Location', 't...: 'euros', 'tag': 'Caftan', 'modified_on': None}>"
p355
sS'IS_LIST_OF_EMAILS'
p356
S"<class 'gluon.validators.IS_LIST_OF_EMAILS'>"
p357
sS'LEGEND'
p358
S"<class 'gluon.html.LEGEND'>"
p359
sS'DIV'
p360
S"<class 'gluon.html.DIV'>"
p361
sS'id'
p362
S"'images'"
p363
sS'COLGROUP'
p364
S"<class 'gluon.html.COLGROUP'>"
p365
sS'DAL'
p366
S"<class 'pydal.base.DAL'>"
p367
sS'ASSIGNJS'
p368
S'<function ASSIGNJS>'
p369
sS'TR'
p370
S"<class 'gluon.html.TR'>"
p371
sS'LI'
p372
S"<class 'gluon.html.LI'>"
p373
sS'TH'
p374
S"<class 'gluon.html.TH'>"
p375
sS'TD'
p376
S"<class 'gluon.html.TD'>"
p377
sS'PluginManager'
p378
S"<class 'gluon.tools.PluginManager'>"
p379
sS'IS_URL'
p380
S"<class 'gluon.validators.IS_URL'>"
p381
sS'A'
S"<class 'gluon.html.A'>"
p382
sS'HEAD'
p383
S"<class 'gluon.html.HEAD'>"
p384
sS'IS_DATETIME_IN_RANGE'
p385
S"<class 'gluon.validators.IS_DATETIME_IN_RANGE'>"
p386
sS'FORM'
p387
S"<class 'gluon.html.FORM'>"
p388
sS'I'
S"<class 'gluon.html.I'>"
p389
sS'a1'
p390
S"'icon1.png'"
p391
sS'a0'
p392
S"'images'"
p393
sS'user'
p394
S'None'
p395
sg123
S"<Storage {'body': <cStringIO.StringO object at 0... at 0x7ffb2ad8dc08>, 'view': 'default/vue.html'}>"
p396
sS'THEAD'
p397
S"<class 'gluon.html.THEAD'>"
p398
sS'ANY_OF'
p399
S"<class 'gluon.validators.ANY_OF'>"
p400
sS'IS_NULL_OR'
p401
S"<class 'gluon.validators.IS_EMPTY_OR'>"
p402
sg56
S"<Storage {'_vars': None, 'function': 'vue', 'coo...me/nadia/Desktop/web2py/applications/Perla_V6/'}>"
p403
sS'IS_EXPR'
p404
S"<class 'gluon.validators.IS_EXPR'>"
p405
sS'T'
S'<gluon.languages.translator object>'
p406
sS'IS_IN_SET'
p407
S"<class 'gluon.validators.IS_IN_SET'>"
p408
sS'IS_UPLOAD_FILENAME'
p409
S"<class 'gluon.validators.IS_UPLOAD_FILENAME'>"
p410
sS'TT'
p411
S"<class 'gluon.html.TT'>"
p412
sS'IS_DECIMAL_IN_RANGE'
p413
S"<class 'gluon.validators.IS_DECIMAL_IN_RANGE'>"
p414
sssS'traceback'
p415
S'Traceback (most recent call last):\n  File "/home/nadia/Desktop/web2py/gluon/restricted.py", line 227, in restricted\n    exec ccode in environment\n  File "/home/nadia/Desktop/web2py/applications/Perla_V6/views/default/vue.html", line 162, in <module>\n    </div>\nNameError: name \'caf\' is not defined\n'
p416
s.