(dp1
S'output'
p2
S"<type 'exceptions.SyntaxError'> EOL while scanning string literal (djelleba.html, line 114)"
p3
sS'layer'
p4
S'/home/nadia/Desktop/web2py/applications/Perla_V6/views/default/djelleba.html'
p5
sS'code'
p6
S'response.write(\'<!--\\nAuthor: W3layouts\\nAuthor URL: http://w3layouts.com\\nLicense: Creative Commons Attribution 3.0 Unported\\nLicense URL: http://creativecommons.org/licenses/by/3.0/\\n-->\\n<!DOCTYPE html>\\n<html>\\n<head>\\n<title>Votre caftan pas ch\\xc3\\xa8re</title>\\n<link href="\', escape=False)\nresponse.write(URL(\'static\', \'css/bootstrap.css\'))\nresponse.write(\'" rel=\\\'stylesheet\\\' type=\\\'text/css\\\' />\\n<link href="\', escape=False)\nresponse.write(URL(\'static\', \'css/component.css\'))\nresponse.write(\'" rel=\\\'stylesheet\\\' type=\\\'text/css\\\' />\\n<!-- jQuery (necessary for Bootstrap\\\'s JavaScript plugins) -->\\n<script src="\', escape=False)\nresponse.write(URL(\'static\', \'js/jquery.min.js\'))\nresponse.write(\'"></script>\\n\\n<!-- Custom Theme files -->\\n<link href="\', escape=False)\nresponse.write(URL(\'static\', \'css/style.css\'))\nresponse.write(\'" rel="stylesheet" type="text/css" media="all" />\\n<!-- Custom Theme files -->\\n<meta name="viewport" content="width=device-width, initial-scale=1">\\n<meta http-equiv="Content-Type" content="text/html; charset=utf-8" />\\n<meta name="keywords" content="Eshop Responsive web template, Bootstrap Web Templates, Flat Web Templates, Andriod Compatible web template,\\nSmartphone Compatible web template, free webdesigns for Nokia, Samsung, LG, SonyErricsson, Motorola web design" />\\n<script type="application/x-javascript"> addEventListener("load", function() { setTimeout(hideURLbar, 0); }, false); function hideURLbar(){ window.scrollTo(0,1); } </script>\\n<!--webfont-->\\n<!-- for bootstrap working -->\\n\\t<script type="text/javascript" src="\', escape=False)\nresponse.write(URL(\'static\',\'js/bootstrap-3.1.1.min.js\'))\nresponse.write(\'"></script>\\n<!-- //for bootstrap working -->\\n<!-- cart -->\\n\\n<!-- cart -->\\n<link rel="stylesheet" href="\', escape=False)\nresponse.write(URL(\'static\', \'css/flexslider.css\'))\nresponse.write(\'" type="text/css" media="screen" />\\n</head>\\n<body onload="brython(1)">\\n\\t<!-- header-section-starts -->\\n\\t<div class="header">\\n\\t\\t<div class="header-top-strip">\\n\\t\\t\\t<div class="container">\\n\\t\\t\\t\\t<div class="header-top-left">\\n        \', escape=False)\nuser = User(a0 or me)\nresponse.write(\'\\n\\t\\t\\t\\t\\t\', escape=False)\nif user:\n    response.write(\'\\n\\t\\t\\t\\t\\t\', escape=False)\n    a=T(\'Votre espace client\')\n    response.write(\'\\n\\t\\t\\t\\t\\t<ul>\\n\\t\\t\\t\\t\\t\\t<li><a href="\', escape=False)\n    response.write((URL(\'default\', \'profile\')))\n    response.write(\'"><span class="glyphicon glyphicon-user"> </span>Profil</a></li>\\n\\t\\t\\t\\t\\t\\t<li><a href="\', escape=False)\n    response.write((URL(\'default\', \'utilisateur\')))\n    response.write(\'"><span class="glyphicon glyphicon-lock"> </span>\', escape=False)\n    response.write(a)\n    response.write(\'</a></li>\\n\\t\\t\\t\\t\\t</ul>\\n           \', escape=False)\nelse:\n    response.write(\'\\n\\t\\t\\t\\t\\t<ul>\\n\\t\\t\\t\\t\\t\\t<li><a href="\', escape=False)\n    response.write((URL(\'default\', \'login\')))\n    response.write(\'"><span class="glyphicon glyphicon-user"> </span>Login</a></li>\\n\\t\\t\\t\\t\\t\\t<li><a href="\', escape=False)\n    response.write((URL(\'default\', \'enregistrement\')))\n    response.write(\'"><span class="glyphicon glyphicon-lock"> </span>\', escape=False)\n    response.write(T(\'Cr\xc3\xa9er un compte\'))\n    response.write(\'</a></li>\\n\\t\\t\\t\\t\\t</ul>\\n\\t\\t\\t\\t\\t\', escape=False)\n    pass\nresponse.write(\'\\n\\t\\t\\t\\t</div>\\n\\t\\t\\t\\t<div class="header-right">\\n\\t\\t\\t\\t\\t\\t<div class="cart box_1">\\n\\t\\t\\t\\t\\t\\t\\t <a id="panier" href="\', escape=False)\nresponse.write((URL(\'default\', \'panier\')))\nresponse.write(\'">\\n                <h3> <span id="simplecart" class="simpleCart_total"> \\xe2\\x82\\xac0.00 </span> (<span id="simpleCart_quantity" class="simpleCart_quantity"> 0 </span>)<img src="\', escape=False)\nresponse.write(URL(\'static\', \'images/bag.png\'))\nresponse.write(\'" alt=""></h3>\\n              </a>\\n              <p><a id="effacever"  name="efface" onclick="ajax(\\\'\', escape=False)\nresponse.write(URL(\'default\', \'nettoyage\'))\nresponse.write(\'\\\', [\\\'efface\\\'])"   href="javascript:;" class="simpleCart_empty">\', escape=False)\nresponse.write(T(\'Videz le panier\'))\nresponse.write(\'</a></p>\\n              <div class="clearfix"> </div>\\n            </div>\\n\\t\\t\\t\\t</div>\\n\\t\\t\\t\\t<div class="clearfix"> </div>\\n\\t\\t\\t</div>\\n\\t\\t</div>\\n\\t</div>\\n\\t<!-- header-section-ends -->\\n  <div class="banner-top">\\n  <div class="container">\\n      <nav class="navbar navbar-default" role="navigation">\\n    <div class="navbar-header">\\n        <button type="button" class="navbar-toggle" data-toggle="collapse" data-target="#bs-example-navbar-collapse-1">\\n          <span class="sr-only">Toggle navigation</span>\\n          <span class="icon-bar"></span>\\n          <span class="icon-bar"></span>\\n          <span class="icon-bar"></span>\\n        </button>\\n      <div class="logo">\\n        <h1><a href="\', escape=False)\nresponse.write((URL(\'default\', \'acceuil\')))\nresponse.write(\'"><span>P</span> -Erla</a></h1>\\n      </div>\\n    </div>\\n    <!--/.navbar-header-->\\n\\n    <div class="collapse navbar-collapse" id="bs-example-navbar-collapse-1">\\n        <ul class="nav navbar-nav">\\n    <li><a href="\', escape=False)\nresponse.write((URL(\'default\', \'acceuil\')))\nresponse.write(\'">\', escape=False)\nresponse.write(T(\'Acceuil\'))\nresponse.write(\'</a></li>\\n          <li class="dropdown">\\n              <a href="#" class="dropdown-toggle" data-toggle="dropdown">\', escape=False)\nresponse.write(T(\'Caftan\'))\nresponse.write(\'<b class="caret"></b></a>\\n              <ul class="dropdown-menu multi-column columns-2">\\n                <div class="row">\\n                  <div class="col-sm-4">\\n                    <ul class="multi-column-dropdown">\\n                <h6>\', escape=False)\nresponse.write(T("COLLECTION CAFTANS"))\nresponse.write(\'</h6>\\n                      <li><a href="\', escape=False)\nresponse.write((URL(\'default\', \'caftan_en_location\')))\nresponse.write(\'">\', escape=False)\nresponse.write(T("Caftan en location"))\nresponse.write(\'</a></li>\\n                      <li><a href="\', escape=False)\nresponse.write((URL(\'default\', \'caftan_en_vente\')))\nresponse.write(\'">\', escape=False)\nresponse.write(T("Caftan en vente"))\nresponse.write(\'</a></li>\\n                      <!--<li><a href="\', escape=False)\nresponse.write((URL(\'default\', \'robe_de_soiree_en_location\')))\nresponse.write(\'">\', escape=False)\nresponse.write(T("Robe de soir\xc3\xa9e en location"))\nresponse.write(\'</a></li>\\n                      <li><a href="\', escape=False)\nresponse.write((URL(\'default\', \'robe_de_soiree_en_vente\')))\nresponse.write(\'">\', escape=False)\nresponse.write(T("Robe de soir\xc3\xa9e en vente"))\nresponse.write(\'</a></li> -->\\n                    </ul>\\n                  </div>\\n            <div class="clearfix"></div>\\n                </div>\\n              </ul>\\n          </li>\\n          <li class="dropdown">\\n              <a href="#" class="dropdown-toggle" data-toggle="dropdown">\', escape=False)\nresponse.write(T("Robe de soir\xc3\xa9e"))\nresponse.write(\' <b class="caret"></b></a>\\n              <ul class="dropdown-menu multi-column columns-2">\\n                <div class="row">\\n                  <div class="col-sm-4">\\n                    <ul class="multi-column-dropdown">\\n                <h6>\', escape=False)\nresponse.write(T("COLLECTION ROBES DE SOIR\xc3\x89E"))\nresponse.write(\'</h6>\\n                      <li><a href="\', escape=False)\nresponse.write((URL(\'default\', \'robe_de_soiree_en_location\')))\nresponse.write(\'">\', escape=False)\nresponse.write(T("Robe de soir\xc3\xa9e en location"))\nresponse.write(\'</a></li>\\n                      <li><a href="\', escape=False)\nresponse.write((URL(\'default\', \'robe_de_soiree_en_vente\')))\nresponse.write(\'">\', escape=False)\nresponse.write(T("Robe de soir\xc3\xa9e en vente"))\nresponse.write(\'</a></li>\\n                    </ul>\\n                  </div>\\n            <div class="clearfix"></div>\\n                </div>\\n              </ul>\\n          </li>\\n          <li class="dropdown">\\n            <a href="#" class="dropdown-toggle" data-toggle="dropdown">\', escape=False)\nresponse.write(T("Grande Taille"))\nresponse.write(\'<b class="caret"></b></a>\\n              <ul class="dropdown-menu multi-column columns-2">\\n                <div class="row">\\n                  <div class="col-sm-6">\\n                    <ul class="multi-column-dropdown">\\n                <h6>\', escape=False)\nresponse.write(T("Caftan, Djellaba et Guandoura"))\nresponse.write(\'</h6>\\n                      <li><a href="\', escape=False)\nresponse.write((URL(\'default\', \'djelleba\')))\nresponse.write(\'">\', escape=False)\nresponse.write(T("Caftan en location"))\nresponse.write(\'</a></li>\\n                      <li><a href="\', escape=False)\nresponse.write((URL(\'default\', \'Guandoura\')))\nresponse.write(\'">\', escape=False)\nresponse.write(T("Djellaba et Guandoura"))\nresponse.write(\'</a></li>\\n                    </ul>\\n                  </div>\\n            <div class="clearfix"></div>\\n                </div>\\n              </ul>\\n          </li>\\n          <li class="dropdown">\\n            <a href="#" class="dropdown-toggle" data-toggle="dropdown">\', escape=False)\nresponse.write(T("accessoires"))\nresponse.write(\'<b class="caret"></b></a>\\n              <ul class="dropdown-menu multi-column columns-2">\\n                <div class="row">\\n                  <div class="col-sm-6">\\n                    <ul class="multi-column-dropdown">\\n                <h6>\', escape=False)\nresponse.write(T("ACCESSOIRES"))\nresponse.write(\'</h6>\\n                <li><a href="\', escape=False)\nresponse.write((URL(\'default\', \'bijoux\')))\nresponse.write(\'">\', escape=False)\nresponse.write(T("Bijoux"))\nresponse.write(\'</a></li>\\n                    </ul>\\n                  </div>\\n            <div class="clearfix"></div>\\n                </div>\\n              </ul>\\n          </li>\\n        <li><a href="contact.html">\', escape=False)\nresponse.write(T("contact"))\nresponse.write(\'</a></li>\\n        </ul>\\n    </div>\\n    <!--/.navbar-collapse-->\\n</nav>\\n<!--/.navbar-->\\n</div>\\n</div>\\n\\n\', escape=False)\nresponse.write(\'\\n<script src="\', escape=False)\nresponse.write(URL(\'static\', \'js/brython.js\'))\nresponse.write(\'"> </script>\\n\', escape=False)\nresponse.write(\'<!-- content-section-starts -->\\n\\t<div class="container">\\n\\t   <div class="products-page">\\n\\t\\t\\t<div class="products">\\n\\t\\t\\t\\t<div class="product-listy">\\n\\t\\t\\t\\t\\t<h2>\', escape=False)\nresponse.write(T(\'Nos Produits\'))\nresponse.write(\'</h2>\\n\\t\\t\\t\\t\\t<ul class="product-list">\\n\\t\\t\\t\\t\\t\\t<li><a href="\', escape=False)\nresponse.write((URL(\'default\', \'caftan_en_location\')))\nresponse.write(\'">\', escape=False)\nresponse.write(T(\'Caftan en location\'))\nresponse.write(\'</a></li>\\n\\t\\t\\t\\t\\t\\t<li><a href="\', escape=False)\nresponse.write((URL(\'default\', \'caftan_en_vente)))\nresponse.write(\'">\', escape=False)\nresponse.write(T(\'Caftan en vente\'))\nresponse.write(\'</a></li>\\n\\t\\t\\t\\t\\t\\t<li><a href="">\', escape=False)\nresponse.write(T(\'Caftan locations \'))\nresponse.write(\'</a></li>\\n\\t\\t\\t\\t\\t\\t<li><a href="">\', escape=False)\nresponse.write(T(\'Djellaba\'))\nresponse.write(\'</a></li>\\n\\t\\t\\t\\t\\t\\t<li><a href="#">\', escape=False)\nresponse.write(T(\'Bijoux\'))\nresponse.write(\'</a></li>\\n\\t\\t\\t\\t\\t\\t<li><a href="register.html">\', escape=False)\nresponse.write(T(\'Inscription\'))\nresponse.write(\'</a></li>\\n\\t\\t\\t\\t\\t</ul>\\n\\t\\t\\t\\t</div>\\n\', escape=False)\nresponse.write(\'\\n\', escape=False)\nresponse.write(\'<div class="latest-bis">\\n\\t\\t\\t\\t\\t<img src="\', escape=False)\nresponse.write(URL(\'static\',\'images/Caftan_barre.png\'))\nresponse.write(\'" class="img-responsive" alt="" />\\n\\t\\t\\t\\t\\t<div class="offer">\\n\\t\\t\\t\\t\\t\\t<!-- <p>40%</p>\\n\\t\\t\\t\\t\\t\\t<small>Promotion</small> -->\\n\\t\\t\\t\\t\\t</div>\\n\\t\\t\\t\\t</div>\\n\', escape=False)\nresponse.write(\'\\n\', escape=False)\ntags=db().select(db.produit.ALL, orderby=db.produit.nom, limitby=(0, 15))\nresponse.write(\'\\n\\n\\n\\n<div class="tags">\\n\\t\\t\\t\\t    \\t<h4 class="tag_head">Tags Widget</h4>\\n\\t\\t\\t\\t         <ul class="tags_links">\\n                  \', escape=False)\nfor tag in tags:\n    response.write(\'\\n              <li><a href="#">\', escape=False)\n    response.write(tag.tag)\n    response.write(\'</a></li>\\n\\t\\t\\t\\t\\t\\t\\t<li><a href="#">\', escape=False)\n    response.write(tag.tag1)\n    response.write(\'</a></li>\\n              <li><a href="#">\', escape=False)\n    response.write(tag.tag2)\n    response.write(\'</a></li>\\n              <li><a href="#">\', escape=False)\n    response.write(tag.tag3)\n    response.write(\'</a></li>\\n\\n                  \', escape=False)\n    pass\nresponse.write(\'\\n\\t\\t\\t\\t\\t\\t</ul>\\n\\n\\n\\t\\t\\t\\t     </div>\\n           </div>\\n\', escape=False)\nresponse.write(\'\\n</div>\\n<div class="new-product">\\n\\t\\t\\t\\t<div class="new-product-top">\\n\\t\\t\\t\\t\\t<ul class="product-top-list">\\n\\t\\t\\t\\t\\t\\t<li><a href="acceuil.html">\', escape=False)\nresponse.write(T("Acceuil"))\nresponse.write(\'</a>&nbsp;<span>&gt;</span></li>\\n\\t\\t\\t\\t\\t\\t<li><span class="act">\', escape=False)\nresponse.write(T("Djellaba"))\nresponse.write(\'</span>&nbsp;</li>\\n\\t\\t\\t\\t\\t</ul>\\n\\t\\t\\t\\t\\t<p class="back"><a href="acceuil.html">\', escape=False)\nresponse.write(T("Page pr\xc3\xa9c\xc3\xa9dente"))\nresponse.write(\'</a></p>\\n\\t\\t\\t\\t\\t<div class="clearfix"></div>\\n\\t\\t\\t\\t</div>\\n\\n        <div class="mens-toolbar">\\n                   <div class="sort">\\n                     <div class="sort-by">\\n                    <label>\', escape=False)\nresponse.write(T("TRIEZ PAR"))\nresponse.write(\'</label>\\n                    <select id="selection">\\n                                    <option value="\', escape=False)\nresponse.write(Position)\nresponse.write(\'">\\n                            \', escape=False)\nresponse.write(T("Position"))\nresponse.write(\'                </option>\\n                                    <option value="\', escape=False)\nresponse.write(Name)\nresponse.write(\'">\\n                            \', escape=False)\nresponse.write(T("Nom"))\nresponse.write(\'                </option>\\n                                    <option value="\', escape=False)\nresponse.write(Price)\nresponse.write(\'">\\n                            \', escape=False)\nresponse.write(T("Prix"))\nresponse.write(\'                </option>\\n                    </select>\\n                    <a href=""><img src="\', escape=False)\nresponse.write(URL(\'static\', \'images/arrow2.gif\'))\nresponse.write(\'" alt="" class="v-middle"></a>\\n                       </div>\\n                 </div>\\n                \', escape=False)\nresponse.write(\'<ul class="women_pagenation">\\n<li>Page:</li>\\n\', escape=False)\nif page < 0:\n    response.write(\'\\n<li class="active"><a href="#">&laquo;</a></li>\\n\', escape=False)\n    pass\nresponse.write(\'\\n\', escape=False)\nif len(caftansnoms)>=30:\n    response.write(\'\\n<li><a href="#">&raquo;</a></li>\\n\', escape=False)\n    pass\nresponse.write(\'\\n</ul>\\n\', escape=False)\nresponse.write(\'\\n                     <div class="clearfix"></div>\\n              </div>\\n          <!---728x90 -->\\n          <div id="cbp-vm" class="cbp-vm-switcher cbp-vm-view-grid">\\n         <div class="cbp-vm-options">\\n           <a href="#" class="cbp-vm-icon cbp-vm-grid cbp-vm-selected" data-view="cbp-vm-view-grid" title="grid">Grid View</a>\\n           <a href="#" class="cbp-vm-icon cbp-vm-list" data-view="cbp-vm-view-list" title="list">List View</a>\\n         </div>\\n\\n        \', escape=False)\nif chiffre == 9:\n    response.write(\'\\n<div class="pages">\\n  <div class="limiter visible-desktop">\\n      <label>Show</label>\\n         <select>\\n        <option value="" selected="selected">\\n           9                </option>\\n         </select> \', escape=False)\n    response.write(T("Par page"))\n    response.write(\'\\n      </div>\\n  </div>\\n\\n\\n\\n\', escape=False)\nelif chiffre == 15:\n    response.write(\'\\n<div class="pages">\\n    <div class="limiter visible-desktop">\\n        <label>Show</label>\\n           <select>\\n                     <option value="" selected="selected">\\n             9                </option>\\n                     <option value="">\\n             15                </option>\\n           </select> \', escape=False)\n    response.write(T("Par page"))\n    response.write(\'\\n        </div>\\n    </div>\\n\\n\\n\', escape=False)\nelif chiffre == 30:\n    response.write(\'\\n\\n<div class="pages">\\n  <div class="limiter visible-desktop">\\n      <label>Show</label>\\n         <select>\\n                   <option value="" selected="selected">\\n           9                </option>\\n                   <option value="">\\n           15                </option>\\n                   <option value="">\\n           30                </option>\\n         </select> \', escape=False)\n    response.write(T("Par page"))\n    response.write(\'\\n      </div>\\n  </div>\\n\\n\\n\\n\\n  \', escape=False)\nelse:\n    response.write(\'\\n\\n  <div class="pages">\\n    <div class="limiter visible-desktop">\\n        <label>Show</label>\\n           <select disabled>\\n                     <option value="" selected="selected">\\n             9                </option>\\n                     <option value="">\\n             15                </option>\\n                     <option value="">\\n             30                </option>\\n           </select> \', escape=False)\n    response.write(T("Par page"))\n    response.write(\'\\n        </div>\\n    </div>\\n\\n    \', escape=False)\n    pass\nresponse.write(\'\\n\', escape=False)\nresponse.write(\'\\n\\n\\n           <div class="clearfix"></div>\\n    \', escape=False)\nresponse.write(\'  \\n  <script src="\', escape=False)\nresponse.write(URL(\'static\', \'js/brython.js\'))\nresponse.write(\'"> </script>\\n  <script src="\', escape=False)\nresponse.write(URL(\'static\', \'js/brython_stdlib.js\'))\nresponse.write(\'"> </script>\\n\\n\\n\\n  <script type="text/python" src="\', escape=False)\nresponse.write(URL(\'static\',\'js/div.py\'))\nresponse.write(\'"></script>\\n\\n\\n<ul id="caftansnoms" class=" w3-animate-left">\\n\', escape=False)\nfor caftansnom in  caftansnoms:\n    response.write(\'\\n\\n<li>\\n   <a class="cbp-vm-image" href="\', escape=False)\n    response.write(URL(\'vue\', args=caftansnom.url))\n    response.write(\'">\\n     <div class="simpleCart_shelfItem">\\n     <div class="view view-first">\\n       <div class="inner_content clearfix">\\n     <div class="product_image">\\n       <img src="\', escape=False)\n    response.write(URL(\'download\',args=caftansnom.photo2))\n    response.write(\'" class="img-responsive" alt=""/>\\n       <div class="mask">\\n       <div class="info">Quick View</div>\\n         </div>\\n       <div class="product_container">\\n          <div class="cart-left">\\n          <p class="title">\', escape=False)\n    response.write(caftansnom.nom)\n    response.write(\'</p>\\n          </div>\\n          <div class="pricey"><span class="item_price">\\xe2\\x82\\xac\', escape=False)\n    response.write(caftansnom.prix_total)\n    response.write(\'</span></div>\\n          <div class="clearfix"></div>\\n          </div>\\n       </div>\\n      </div>\\n      </div>\\n   </a>\\n   <div class="cbp-vm-details">\\n     \', escape=False)\n    response.write(caftansnom.descriptif)\n    response.write(\'\\n   </div>\\n  <div>\\n  <INPUT type="text" style="display:none;"  name="name" value="\', escape=False)\n    response.write(caftansnom.id)\n    response.write(\'"/>\\n   <button id="\', escape=False)\n    response.write(caftansnom.id)\n    response.write(\'"  class="cbp-vm-icon cbp-vm-add item_add let" >Add to cart</button>\\n </div>\\n <div style="color:green" id="noms\', escape=False)\n    response.write(caftansnom.id)\n    response.write(\'"></div>\\n  </div>     \\n </li>\\n \', escape=False)\n    pass\nresponse.write(\'\\n</ul>\\n\\n<ul id="caftansdates" style="display:none" class=" w3-animate-left">\\n\', escape=False)\nfor caftansnom in  caftansdates:\n    response.write(\'\\n\\n<li>\\n   <a class="cbp-vm-image" href="\', escape=False)\n    response.write(URL(\'vue\', args=caftansnom.url))\n    response.write(\'">\\n     <div class="simpleCart_shelfItem">\\n     <div class="view view-first">\\n       <div class="inner_content clearfix">\\n     <div class="product_image">\\n       <img src="\', escape=False)\n    response.write(URL(\'download\',args=caftansnom.photo2))\n    response.write(\'" class="img-responsive" alt=""/>\\n       <div class="mask">\\n       <div class="info">Quick View</div>\\n         </div>\\n       <div class="product_container">\\n          <div class="cart-left">\\n          <p class="title">\', escape=False)\n    response.write(caftansnom.nom)\n    response.write(\'</p>\\n          </div>\\n          <div class="pricey"><span class="item_price">\\xe2\\x82\\xac\', escape=False)\n    response.write(caftansnom.prix_total)\n    response.write(\'</span></div>\\n          <div class="clearfix"></div>\\n          </div>\\n       </div>\\n                </div>\\n       </div>\\n   </a>\\n   <div class="cbp-vm-details">\\n     \', escape=False)\n    response.write(caftansnom.descriptif)\n    response.write(\'\\n   </div>\\n     <button id="date\', escape=False)\n    response.write(caftansnom.id)\n    response.write(\'" class="cbp-vm-icon cbp-vm-add item_add" href="#">Add to cart</button>\\n   </div>\\n </li>\\n \', escape=False)\n    pass\nresponse.write(\'\\n</ul>\\n\\n\\n\\n<ul id="caftansprixs" style="display:none" class="w3-animate-left">\\n\', escape=False)\nfor caftansnom in  caftansprixs:\n    response.write(\'\\n\\n<li>\\n   <a class="cbp-vm-image" href="\', escape=False)\n    response.write(URL(\'vue\', args=caftansnom.url))\n    response.write(\'">\\n     <div class="simpleCart_shelfItem">\\n     <div class="view view-first">\\n       <div class="inner_content clearfix">\\n     <div class="product_image">\\n       <img src="\', escape=False)\n    response.write(URL(\'download\',args=caftansnom.photo2))\n    response.write(\'" class="img-responsive" alt=""/>\\n       <div class="mask">\\n       <div class="info">Quick View</div>\\n         </div>\\n       <div class="product_container">\\n          <div class="cart-left">\\n          <p class="title">\', escape=False)\n    response.write(caftansnom.nom)\n    response.write(\'</p>\\n          </div>\\n          <div class="pricey"><span class="item_price">$\', escape=False)\n    response.write(caftansnom.prix_total)\n    response.write(\'</span></div>\\n          <div class="clearfix"></div>\\n          </div>\\n       </div>\\n                </div>\\n       </div>\\n   </a>\\n   <div class="cbp-vm-details">\\n     \', escape=False)\n    response.write(caftansnom.descriptif)\n    response.write(\'\\n   </div>\\n    <div>\\n       <INPUT type="text" style="display:none;"  name ="name" value="\', escape=False)\n    response.write(caftansnom.id)\n    response.write(\'"/>\\n    <button id="\', escape=False)\n    response.write(caftansnom.id)\n    response.write(\'"  class="cbp-vm-icon cbp-vm-add item_add">Add to cart</button>\\n  </div>\\n  <div style="color:green" id="prix\', escape=False)\n    response.write(caftansnom.id)\n    response.write(\'"></div>\\n   </div>\\n </li>\\n \', escape=False)\n    pass\nresponse.write(\'\\n</ul>\\n\\n\\n\\n\\n\\n\\n\\n\\n\\n\\n\\n\\n</div>\\n<script src="\', escape=False)\nresponse.write(URL(\'static\', \'js/cbpViewModeSwitch.js\'))\nresponse.write(\'" type="text/javascript"></script>\\n<script src="\', escape=False)\nresponse.write(URL(\'static\', \'js/classie.js\'))\nresponse.write(\'" type="text/javascript"></script>\\n</div>\\n<div class="clearfix"></div>\\n</div>\\n<div class="clearfix"></div>\\n</div>\\n\\n\\n<script type="text/javascript"><!--\\n    // These variables are used by the web2py_ajax_init\\n        // function in web2py.js (which is loaded below).\\n   var w2p_ajax_confirm_message =\\n        "\', escape=False)\nresponse.write(T(\'Are you sure you want to delete this object?\'))\nresponse.write(\'";\\n    var w2p_ajax_date_format = "\', escape=False)\nresponse.write(T(\'%Y-%m-%d\'))\nresponse.write(\'";\\n    var w2p_ajax_datetime_format = "\', escape=False)\nresponse.write(T(\'%Y-%m-%d %H:%M:%S\'))\nresponse.write(\'";\\n//--></script>\\n<script src="\', escape=False)\nresponse.write(URL(\'static\',\'js/web2py.js\'))\nresponse.write(\'"\\n        type="text/javascript"></script>\\n\\n<script type="text/python">\\nfrom browser import document, window\\nimport json\\ncart = {}\\n\\ndef verif():\\n    global cart\\n    if \\\'cart\\\' in window.localStorage:\\n        parsed = json.loads(window.localStorage.cart)\\n        cart = parsed\\n        print(cart)\\n        print(type(cart))\\n    else:\\n        cart= {}    \\n\\n\\nverif()\\n\\n\\ndef ecoute(ev):\\n    global cart\\n    global id\\n    id = ev.target.id\\n    if id in cart:\\n        cart[id] +=1\\n        document.getElementById(\\\'prix\\\'+id).innerHTML = "Rajouter"\\n        document.getElementById(\\\'date\\\'+id).innerHTML = "Rajouter"\\n        document.getElementById(\\\'noms\\\'+id).innerHTML = "Rajouter"\\n \\n    else:\\n        cart[id] = 1\\n        document.getElementById(\\\'prix\\\'+id).innerHTML = "Rajouter"\\n        document.getElementById(\\\'date\\\'+id).innerHTML = "Rajouter"\\n        document.getElementById(\\\'noms\\\'+id).innerHTML = "Rajouter" \\n    window.localStorage.setItem("cart", window.JSON.stringify(cart))  \\n    parsed = json.loads(window.localStorage.cart)\\n    cart = parsed\\n\\n\\n\\n\\nbns = window.jQuery("button")\\nbns.on("click", ecoute )    \\n\\n\\n\\\'\\\'\\\'def effacer(ev):\\n    window.jQuery.ajax({\\\'url\\\':"\', escape=False)\nresponse.write(URL(\'nettoyage\'))\nresponse.write(\'", \\\'type\\\': \\\'POST\\\', \\\'context\\\': \\\'document.body\\\', \\\'data\\\': {"nettoyage": 1},\\\'success\\\': print(\\\'ok\\\')})\\n    cart.clear()\\n    window.localStorage.removeItem(\\\'cart\\\')\\n    window.location.reload()\\\'\\\'\\\'\\n\\n\\ndef remove(ev):\\n    cart.clear()\\n    window.localStorage.removeItem(\\\'cart\\\')\\n    window.location.reload()\\n\\n    \\n\\ndocument.getElementById(\\\'effacever\\\').addEventListener(\\\'click\\\', remove)  \\n\\n\\n\\ndef envoie(ev):\\n    if \\\'cart\\\' in window.localStorage:\\n        window.jQuery.ajax({\\\'url\\\':"\', escape=False)\nresponse.write(URL(\'echo\'))\nresponse.write(\'", \\\'type\\\': \\\'POST\\\', \\\'context\\\': \\\'document.body\\\', \\\'data\\\': {"cart": window.JSON.stringify(cart)},"dataType": "json",\\\'success\\\': print(\\\'ok\\\')})\\n\\n\\n\\n\\n#document.getElementById(\\\'panier\\\').addEventListener(\\\'click\\\', envoie)  \\n\\n\\n\\n\\n\\n\\n\\n</script>\\n\\n\', escape=False)\nresponse.write(\'\\n    \', escape=False)\nresponse.write(\'\\n\\t\\t\\t<div class="other-products">\\n\\t\\t\\t<div class="container">\\n\\t\\t\\t\\t<h3 class="like text-center">\', escape=False)\nresponse.write(T("Perla, votre adresse de l\'\xc3\xa9l\xc3\xa9gance"))\nresponse.write(\'</h3>\\n\\t\\t\\t\\t\\t     <ul id="flexiselDemo3">\\n\\t\\t\\t\\t\\t    \\n\\t\\t\\t\\t\\t\\t\\t\\t \\t\\t\', escape=False)\nfor caftan in caftans:\n    response.write(\'\\n\\t\\t\\t\\t\\t\\t\\t<li><a href="\', escape=False)\n    response.write(URL(\'vue\', args=caftan.url))\n    response.write(\'"><img src="\', escape=False)\n    response.write(URL(\'download\',args=caftan.photo2))\n    response.write(\'" class="img-responsive" alt="" />\\n\\t\\t\\t\\t\\t\\t\\t\\t<div class="product liked-product simpleCart_shelfItem">\\n\\t\\t\\t\\t\\t\\t\\t\\t<a class="like_name" href="\', escape=False)\n    response.write(URL(\'vue\', args=caftan.url))\n    response.write(\'">\', escape=False)\n    response.write(caftan.nom)\n    response.write(\'</a>\\n\\t\\t\\t\\t\\t\\t\\t\\t<p><a class="item_add" href="#"><i></i> <span class=" item_price">\\xe2\\x82\\xac\', escape=False)\n    response.write(caftan.prix_total)\n    response.write(\'</span></a></p>\\n\\t\\t\\t\\t\\t\\t\\t\\t</div>\\n\\t\\t\\t\\t\\t\\t\\t</li>\\n\\t\\t\\t\\t\\t\\t\\t\', escape=False)\n    pass\nresponse.write(\'\\n\\t\\t\\t\\t\\t\\t\\t\\n\\t\\t\\t\\t\\t     </ul>\\n\\n\\t\\t\\t\\t\\t    <script type="text/javascript">\\n\\t\\t\\t\\t\\t\\t $(window).load(function() {\\n\\t\\t\\t\\t\\t\\t\\t$("#flexiselDemo3").flexisel({\\n\\t\\t\\t\\t\\t\\t\\t\\tvisibleItems: 4,\\n\\t\\t\\t\\t\\t\\t\\t\\tanimationSpeed: 1000,\\n\\t\\t\\t\\t\\t\\t\\t\\tautoPlay: true,\\n\\t\\t\\t\\t\\t\\t\\t\\tautoPlaySpeed: 3000,\\n\\t\\t\\t\\t\\t\\t\\t\\tpauseOnHover: true,\\n\\t\\t\\t\\t\\t\\t\\t\\tenableResponsiveBreakpoints: true,\\n\\t\\t\\t\\t\\t\\t    \\tresponsiveBreakpoints: {\\n\\t\\t\\t\\t\\t\\t    \\t\\tportrait: {\\n\\t\\t\\t\\t\\t\\t    \\t\\t\\tchangePoint:480,\\n\\t\\t\\t\\t\\t\\t    \\t\\t\\tvisibleItems: 1\\n\\t\\t\\t\\t\\t\\t    \\t\\t},\\n\\t\\t\\t\\t\\t\\t    \\t\\tlandscape: {\\n\\t\\t\\t\\t\\t\\t    \\t\\t\\tchangePoint:640,\\n\\t\\t\\t\\t\\t\\t    \\t\\t\\tvisibleItems: 2\\n\\t\\t\\t\\t\\t\\t    \\t\\t},\\n\\t\\t\\t\\t\\t\\t    \\t\\ttablet: {\\n\\t\\t\\t\\t\\t\\t    \\t\\t\\tchangePoint:768,\\n\\t\\t\\t\\t\\t\\t    \\t\\t\\tvisibleItems: 3\\n\\t\\t\\t\\t\\t\\t    \\t\\t}\\n\\t\\t\\t\\t\\t\\t    \\t}\\n\\t\\t\\t\\t\\t\\t    });\\n\\n\\t\\t\\t\\t\\t\\t});\\n\\t\\t\\t\\t\\t   </script>\\n\\t\\t\\t\\t\\t   <script type="text/javascript" src="\', escape=False)\nresponse.write(URL(\'static\',\'js/jquery.flexisel.js\'))\nresponse.write(\'"></script>\\n\\t\\t\\t\\t\\t   </div>\\n\\t\\t\\t\\t\\t   </div>\\n\', escape=False)\nresponse.write(\'\\n    \', escape=False)\nresponse.write(\'\\n\\t<script src="\', escape=False)\nresponse.write(URL(\'static\', \'js/brython.js\'))\nresponse.write(\'"> </script>\\n<div class="news-letter">\\n\\t\\t\\t<div class="container">\\n\\t\\t\\t\\t<div class="join">\\n\\t\\t\\t\\t\\t<h6>Rejoindre la Newslettre</h6>\\n\\t\\t\\t\\t\\t<div class="sub-left-right">\\n            \', escape=False)\nresponse.write(form3.custom.begin)\nresponse.write(\'\\n            \', escape=False)\nform3.custom.widget.email[\'_class\']=\'\'\nresponse.write(\'\\n            \', escape=False)\nform3.custom.widget.email[\'_type\']=\'text\'\nresponse.write(\'\\n            \', escape=False)\nform3.custom.widget.email[\'_id\']=\'validtap\'\nresponse.write(\'\\n            \', escape=False)\nform3.custom.widget.email[\'_placeholder\']=\'Entrer votre email\'\nresponse.write(\'\\n            \', escape=False)\nresponse.write(form3.custom.widget.email)\nresponse.write(\'\\n            \', escape=False)\nform3.custom.submit[\'_class\']=\'\'\nresponse.write(\'\\n            \', escape=False)\nform3.custom.submit[\'_id\']=\'validemail\'\nresponse.write(\'\\n            \', escape=False)\nform3.custom.submit[\'_value\']=\'Soumettre\'\nresponse.write(\'\\n            \', escape=False)\nresponse.write(form3.custom.submit)\nresponse.write(\'\\n            \', escape=False)\nresponse.write(form3.custom.end)\nresponse.write(\'\\n\\t\\t\\t\\t\\t</div>\\n\\t\\t\\t\\t\\t<div class="clearfix"> </div>\\n\\n\\t\\t\\t\\t\\t\', escape=False)\nif response.flash == auth.messages.invalid_login:\n    response.write(\'\\n\\t\\t\\t\\t\\t\', escape=False)\n    print("bonjour")\n    response.write(\'\\n\\t\\t\\t\\t\', escape=False)\nelse:\n    response.write(\'\\n\\n          <div  id="validing"   style="color:green" class="container text-center">\\n          \', escape=False)\n    response.write(response.flash or \'\')\n    response.write(\'\\n\\n          </div>\\n\\n\\t\\t\\t\\t\\t\', escape=False)\n    pass\nresponse.write(\'\\n\\n    <div id="error" style="color:red;" class="container text-center">\\n\\n      \', escape=False)\nif form3.errors:\n    response.write(\'\\n\\n  <ul  class="list-unstyled">\\n  \', escape=False)\n    for fieldname in form3.errors:\n        response.write(\'\\n    <li>\', escape=False)\n        response.write(fieldname)\n        response.write(\' error: \', escape=False)\n        response.write(form3.errors[fieldname])\n        response.write(\'</li>\\n  \', escape=False)\n        pass\n    response.write(\'\\n  </ul>\\n  \', escape=False)\n    form3.errors.clear()\n    response.write(\'\\n\', escape=False)\n    pass\nresponse.write(\'\\n\\n    </div>\\n\\n\\t\\t\\t\\t</div>\\n\\t\\t\\t</div>\\n\\t\\t</div>\\n\\t\\t\\n\\t\\t<footer style="background:#323a45; color:#878c93;" >\\n\\t\\t\\t<div class="fh5co-overlay" style="color:#878c93;"></div>\\n\\t\\t\\t<div class="fh5co-footer-content">\\n\\t\\t\\t\\t<div class="container">\\n\\t\\t\\t\\t\\t<div class="row">\\n\\t\\t\\t\\t\\t\\t<div class="col-md-3 col-sm-4 col-md-push-3">\\n\\t\\t\\t\\t\\t\\t\\t<h3 class="fh5co-lead" style="color:#778899;">\\xc3\\xa0 propos</h3>\\n\\t\\t\\t\\t\\t\\t\\t<ul>\\n\\t\\t\\t\\t\\t\\t\\t\\t<li><a href="apropos" style="color:#878c93;">Qui nous sommes</a></li>\\n\\t\\t\\t\\t\\t\\t\\t\\t<li><a href="securite"style="color:#878c93;">S\\xc3\\xa9curit\\xc3\\xa9</a></li>\\n\\t\\t\\t\\t\\t\\t\\t</ul>\\n\\t\\t\\t\\t\\t\\t</div>\\n\\t\\t\\t\\t\\t\\t<div class="col-md-3 col-sm-4 col-md-push-3">\\n\\t\\t\\t\\t\\t\\t\\t<h3 class="fh5co-lead" style="color:#778899;">Nous contacter</h3>\\n\\t\\t\\t\\t\\t\\t\\t<ul>\\n\\t\\t\\t\\t\\t\\t\\t\\t<li><a href="contact"style="color:#878c93;">Contact</a></li>\\n\\t\\t\\t\\t\\t\\t\\t\\t<li><a href="#"style="color:#878c93;">Coordonn\\xc3\\xa9es</a></li>\\n\\t\\t\\t\\t\\t\\t\\t</ul>\\n\\t\\t\\t\\t\\t\\t</div>\\n\\t\\t\\t\\t\\t\\t<div class="col-md-3 col-sm-4 col-md-push-3">\\n\\t\\t\\t\\t\\t\\t\\t<h3 class="fh5co-lead" style="color:#778899;" >Conditions</h3>\\n\\t\\t\\t\\t\\t\\t\\t<ul>\\n\\t\\t\\t\\t\\t\\t\\t\\t<li><a href="devente"style="color:#878c93;"> Conditions de vente</a></li>\\n\\t\\t\\t\\t\\t\\t\\t\\t<li><a href="delocation"style="color:#878c93;">Conditions de location</a></li>\\n\\t\\t\\t\\t\\t\\t\\t</ul>\\n\\t\\t\\t\\t\\t\\t</div>\\n\\n\\t\\t\\t\\t\\t\\t<div class="col-md-3 col-sm-12 col-md-pull-9">\\n\\t\\t\\t\\t\\t\\t\\t<div class="fh5co-footer-logo" ><a href="index.html" style="color:#878c93;">PERLA</a></div>\\n\\t\\t\\t\\t\\t\\t\\t<p class="fh5co-copyright"><small>&copy; 2017.Tous droits r\\xc3\\xa9serv\\xc3\\xa9s.<br>par <a href="" target="_blank" style="color:#878c93;">Perla</a> </p>\\n\\t\\t\\t\\t\\t\\t\\t<p class="fh5co-social-icons">\\n\\t\\t\\t\\t\\t\\t\\t\\t<a href="#"><i class="icon-twitter"></i></a>\\n\\t\\t\\t\\t\\t\\t\\t\\t<a href="#"><i class="icon-facebook"></i></a>\\n\\t\\t\\t\\t\\t\\t\\t\\t<a href="#"><i class="icon-instagram"></i></a>\\n\\t\\t\\t\\t\\t\\t\\t\\t<a href="#"><i class="icon-dribbble"></i></a>\\n\\t\\t\\t\\t\\t\\t\\t\\t<a href="#"><i class="icon-youtube"></i></a>\\n\\t\\t\\t\\t\\t\\t\\t</p>\\n\\t\\t\\t\\t\\t\\t</div>\\n\\t\\t\\t\\t\\t\\t\\n\\t\\t\\t\\t\\t</div>\\n\\t\\t\\t\\t</div>\\n\\t\\t\\t</div>\\n\\t\\t</footer>\\n\\n\\n\\n\\n\\n\\n\\n\\n</body>\\n</html>\\n\\n<style media="screen">\\n  .error{\\n  color:red\\n\\n\\n  }\\n</style>\\n\\n\\n<script type="text/python">\\nfrom browser import document, window\\nerror = document.getElementById(\\\'error\\\')\\nvalid  = document.getElementById(\\\'validing\\\')\\nd = valid.innerHTML\\n\\n\\n\\n\\nif len(error.innerHTML) == 123:\\n\\twindow.scrollTo(0,document.body.scrollHeight)\\n\\twindow.jQuery(\\\'html,body\\\').animate({\\\'scrollTop\\\': document.body.scrollHeight},"fast")\\nelif len(d) == 42:\\n\\twindow.scrollTo(0,document.body.scrollHeight)\\n\\twindow.jQuery(\\\'html,body\\\').animate({\\\'scrollTop\\\': document.body.scrollHeight},"fast")\\t\\n\\n\\t\\n\\n\\n\\n\\n\\n\\n\\n\\n\\n</script>\\n\\n<style type="text/css" media="screen">\\n\\n\\ninput#validtap {\\n    color: black;\\n}\\n\\t\\n</style>\', escape=False)\nresponse.write(\'\\n\\n\\n\\n\', escape=False)\nresponse.write(\'\\n\', escape=False)'
p7
sS'snapshot'
p8
(dp9
S'exception'
p10
(dp11
S'__getslice__'
p12
S"<method-wrapper '__getslice__' of exceptions.SyntaxError object>"
p13
sS'text'
p14
S'"response.write((URL(\'default\', \'caftan_en_vente)))\\n"'
p15
sS'__str__'
p16
S"<method-wrapper '__str__' of exceptions.SyntaxError object>"
p17
sS'__reduce__'
p18
S'<built-in method __reduce__ of exceptions.SyntaxError object>'
p19
sS'__dict__'
p20
S'{}'
p21
sS'__sizeof__'
p22
S'<built-in method __sizeof__ of exceptions.SyntaxError object>'
p23
sS'__init__'
p24
S"<method-wrapper '__init__' of exceptions.SyntaxError object>"
p25
sS'__setattr__'
p26
S"<method-wrapper '__setattr__' of exceptions.SyntaxError object>"
p27
sS'__reduce_ex__'
p28
S'<built-in method __reduce_ex__ of exceptions.SyntaxError object>'
p29
sS'__new__'
p30
S'<built-in method __new__ of type object>'
p31
sS'__format__'
p32
S'<built-in method __format__ of exceptions.SyntaxError object>'
p33
sS'__class__'
p34
S"<type 'exceptions.SyntaxError'>"
p35
sS'filename'
p36
S"'/home/nadia/Desktop/web2py/applications/Perla_V6/views/default/djelleba.html'"
p37
sS'lineno'
p38
S'114'
p39
sS'msg'
p40
S"'EOL while scanning string literal'"
p41
sS'__doc__'
p42
S"'Invalid syntax.'"
p43
sS'__getitem__'
p44
S"<method-wrapper '__getitem__' of exceptions.SyntaxError object>"
p45
sS'__setstate__'
p46
S'<built-in method __setstate__ of exceptions.SyntaxError object>'
p47
sS'__getattribute__'
p48
S"<method-wrapper '__getattribute__' of exceptions.SyntaxError object>"
p49
sS'print_file_and_line'
p50
S'None'
p51
sS'args'
p52
S'(\'EOL while scanning string literal\', (\'/home/nadia/Desktop/web2py/applications/Perla_V6/views/default/djelleba.html\', 114, 50, "response.write((URL(\'default\', \'caftan_en_vente)))\\n"))'
p53
sS'__subclasshook__'
p54
S'<built-in method __subclasshook__ of type object>'
p55
sS'offset'
p56
S'50'
p57
sS'__unicode__'
p58
S'<built-in method __unicode__ of exceptions.SyntaxError object>'
p59
sS'__delattr__'
p60
S"<method-wrapper '__delattr__' of exceptions.SyntaxError object>"
p61
sS'__repr__'
p62
S"<method-wrapper '__repr__' of exceptions.SyntaxError object>"
p63
sS'__hash__'
p64
S"<method-wrapper '__hash__' of exceptions.SyntaxError object>"
p65
ssS'evalue'
p66
S'EOL while scanning string literal (djelleba.html, line 114)'
p67
sS'request'
p68
cgluon.html
XML_unpickle
p69
(S'sOa\x00\x00<div><table><tr><td style="font-weight:bold;vertical-align:top;">ajax</td><td style="vertical-align:top;">:</td><td><div>False</div></td></tr><tr><td style="font-weight:bold;vertical-align:top;">application</td><td style="vertical-align:top;">:</td><td><div>Perla_V6</div></td></tr><tr><td style="font-weight:bold;vertical-align:top;">args</td><td style="vertical-align:top;">:</td><td><div><table></table></div></td></tr><tr><td style="font-weight:bold;vertical-align:top;">cid</td><td style="vertical-align:top;">:</td><td><div>None</div></td></tr><tr><td style="font-weight:bold;vertical-align:top;">client</td><td style="vertical-align:top;">:</td><td><div>127.0.0.1</div></td></tr><tr><td style="font-weight:bold;vertical-align:top;">controller</td><td style="vertical-align:top;">:</td><td><div>default</div></td></tr><tr><td style="font-weight:bold;vertical-align:top;">cookies</td><td style="vertical-align:top;">:</td><td><div><table><tr><td style="font-weight:bold;vertical-align:top;">session_id_admin</td><td style="vertical-align:top;">:</td><td><div>127.0.0.1-0cfb3e64-fcb8-412f-9492-d366c88a5da5<table><tr><td style="font-weight:bold;vertical-align:top;">comment</td><td style="vertical-align:top;">:</td><td><div></div></td></tr><tr><td style="font-weight:bold;vertical-align:top;">domain</td><td style="vertical-align:top;">:</td><td><div></div></td></tr><tr><td style="font-weight:bold;vertical-align:top;">expires</td><td style="vertical-align:top;">:</td><td><div></div></td></tr><tr><td style="font-weight:bold;vertical-align:top;">httponly</td><td style="vertical-align:top;">:</td><td><div></div></td></tr><tr><td style="font-weight:bold;vertical-align:top;">max-age</td><td style="vertical-align:top;">:</td><td><div></div></td></tr><tr><td style="font-weight:bold;vertical-align:top;">path</td><td style="vertical-align:top;">:</td><td><div></div></td></tr><tr><td style="font-weight:bold;vertical-align:top;">secure</td><td style="vertical-align:top;">:</td><td><div></div></td></tr><tr><td style="font-weight:bold;vertical-align:top;">version</td><td style="vertical-align:top;">:</td><td><div></div></td></tr></table></div></td></tr><tr><td style="font-weight:bold;vertical-align:top;">session_id_application</td><td style="vertical-align:top;">:</td><td><div>127.0.0.1-1dee8e5f-5bae-4bcc-b58e-572d161d46cf<table><tr><td style="font-weight:bold;vertical-align:top;">comment</td><td style="vertical-align:top;">:</td><td><div></div></td></tr><tr><td style="font-weight:bold;vertical-align:top;">domain</td><td style="vertical-align:top;">:</td><td><div></div></td></tr><tr><td style="font-weight:bold;vertical-align:top;">expires</td><td style="vertical-align:top;">:</td><td><div></div></td></tr><tr><td style="font-weight:bold;vertical-align:top;">httponly</td><td style="vertical-align:top;">:</td><td><div></div></td></tr><tr><td style="font-weight:bold;vertical-align:top;">max-age</td><td style="vertical-align:top;">:</td><td><div></div></td></tr><tr><td style="font-weight:bold;vertical-align:top;">path</td><td style="vertical-align:top;">:</td><td><div></div></td></tr><tr><td style="font-weight:bold;vertical-align:top;">secure</td><td style="vertical-align:top;">:</td><td><div></div></td></tr><tr><td style="font-weight:bold;vertical-align:top;">version</td><td style="vertical-align:top;">:</td><td><div></div></td></tr></table></div></td></tr><tr><td style="font-weight:bold;vertical-align:top;">session_id_perla_v6</td><td style="vertical-align:top;">:</td><td><div>127.0.0.1-88fdffdc-e1f5-4f88-b592-87dd7bccd7c4<table><tr><td style="font-weight:bold;vertical-align:top;">comment</td><td style="vertical-align:top;">:</td><td><div></div></td></tr><tr><td style="font-weight:bold;vertical-align:top;">domain</td><td style="vertical-align:top;">:</td><td><div></div></td></tr><tr><td style="font-weight:bold;vertical-align:top;">expires</td><td style="vertical-align:top;">:</td><td><div></div></td></tr><tr><td style="font-weight:bold;vertical-align:top;">httponly</td><td style="vertical-align:top;">:</td><td><div></div></td></tr><tr><td style="font-weight:bold;vertical-align:top;">max-age</td><td style="vertical-align:top;">:</td><td><div></div></td></tr><tr><td style="font-weight:bold;vertical-align:top;">path</td><td style="vertical-align:top;">:</td><td><div></div></td></tr><tr><td style="font-weight:bold;vertical-align:top;">secure</td><td style="vertical-align:top;">:</td><td><div></div></td></tr><tr><td style="font-weight:bold;vertical-align:top;">version</td><td style="vertical-align:top;">:</td><td><div></div></td></tr></table></div></td></tr><tr><td style="font-weight:bold;vertical-align:top;">session_id_welcome</td><td style="vertical-align:top;">:</td><td><div>127.0.0.1-de309929-02ef-4897-98ab-15cb17d87925<table><tr><td style="font-weight:bold;vertical-align:top;">comment</td><td style="vertical-align:top;">:</td><td><div></div></td></tr><tr><td style="font-weight:bold;vertical-align:top;">domain</td><td style="vertical-align:top;">:</td><td><div></div></td></tr><tr><td style="font-weight:bold;vertical-align:top;">expires</td><td style="vertical-align:top;">:</td><td><div></div></td></tr><tr><td style="font-weight:bold;vertical-align:top;">httponly</td><td style="vertical-align:top;">:</td><td><div></div></td></tr><tr><td style="font-weight:bold;vertical-align:top;">max-age</td><td style="vertical-align:top;">:</td><td><div></div></td></tr><tr><td style="font-weight:bold;vertical-align:top;">path</td><td style="vertical-align:top;">:</td><td><div></div></td></tr><tr><td style="font-weight:bold;vertical-align:top;">secure</td><td style="vertical-align:top;">:</td><td><div></div></td></tr><tr><td style="font-weight:bold;vertical-align:top;">version</td><td style="vertical-align:top;">:</td><td><div></div></td></tr></table></div></td></tr></table></div></td></tr><tr><td style="font-weight:bold;vertical-align:top;">env</td><td style="vertical-align:top;">:</td><td><div><table><tr><td style="font-weight:bold;vertical-align:top;">HTTP_ACCEPT</td><td style="vertical-align:top;">:</td><td><div>text/html,application/xhtml+xml,application/xml;q=0.9,image/webp,image/apng,*/*;q=0.8</div></td></tr><tr><td style="font-weight:bold;vertical-align:top;">HTTP_ACCEPT_ENCODING</td><td style="vertical-align:top;">:</td><td><div>gzip, deflate, br</div></td></tr><tr><td style="font-weight:bold;vertical-align:top;">HTTP_ACCEPT_LANGUAGE</td><td style="vertical-align:top;">:</td><td><div>fr-FR,fr;q=0.9,en-US;q=0.8,en;q=0.7</div></td></tr><tr><td style="font-weight:bold;vertical-align:top;">HTTP_CONNECTION</td><td style="vertical-align:top;">:</td><td><div>keep-alive</div></td></tr><tr><td style="font-weight:bold;vertical-align:top;">HTTP_COOKIE</td><td style="vertical-align:top;">:</td><td><div>session_id_application=127.0.0.1-1dee8e5f-5bae-4bcc-b58e-572d161d46cf; session_id_welcome=127.0.0.1-de309929-02ef-4897-98ab-15cb17d87925; session_id_admin=127.0.0.1-0cfb3e64-fcb8-412f-9492-d366c88a5da5; session_id_perla_v6=127.0.0.1-88fdffdc-e1f5-4f88-b592-87dd7bccd7c4</div></td></tr><tr><td style="font-weight:bold;vertical-align:top;">HTTP_HOST</td><td style="vertical-align:top;">:</td><td><div>127.0.0.1:8000</div></td></tr><tr><td style="font-weight:bold;vertical-align:top;">HTTP_REFERER</td><td style="vertical-align:top;">:</td><td><div>http://127.0.0.1:8000/Perla_V6/default/djelleba</div></td></tr><tr><td style="font-weight:bold;vertical-align:top;">HTTP_UPGRADE_INSECURE_REQUESTS</td><td style="vertical-align:top;">:</td><td><div>1</div></td></tr><tr><td style="font-weight:bold;vertical-align:top;">HTTP_USER_AGENT</td><td style="vertical-align:top;">:</td><td><div>Mozilla/5.0 (X11; Linux x86_64) AppleWebKit/537.36 (KHTML, like Gecko) Chrome/69.0.3497.100 Safari/537.36</div></td></tr><tr><td style="font-weight:bold;vertical-align:top;">PATH_INFO</td><td style="vertical-align:top;">:</td><td><div>/Perla_V6/default/djelleba</div></td></tr><tr><td style="font-weight:bold;vertical-align:top;">QUERY_STRING</td><td style="vertical-align:top;">:</td><td><div></div></td></tr><tr><td style="font-weight:bold;vertical-align:top;">REMOTE_ADDR</td><td style="vertical-align:top;">:</td><td><div>127.0.0.1</div></td></tr><tr><td style="font-weight:bold;vertical-align:top;">REMOTE_PORT</td><td style="vertical-align:top;">:</td><td><div>43920</div></td></tr><tr><td style="font-weight:bold;vertical-align:top;">REQUEST_METHOD</td><td style="vertical-align:top;">:</td><td><div>GET</div></td></tr><tr><td style="font-weight:bold;vertical-align:top;">SCRIPT_NAME</td><td style="vertical-align:top;">:</td><td><div></div></td></tr><tr><td style="font-weight:bold;vertical-align:top;">SERVER_NAME</td><td style="vertical-align:top;">:</td><td><div>nadia-Lenovo-B50-10</div></td></tr><tr><td style="font-weight:bold;vertical-align:top;">SERVER_PORT</td><td style="vertical-align:top;">:</td><td><div>8000</div></td></tr><tr><td style="font-weight:bold;vertical-align:top;">SERVER_PROTOCOL</td><td style="vertical-align:top;">:</td><td><div>HTTP/1.1</div></td></tr><tr><td style="font-weight:bold;vertical-align:top;">SERVER_SOFTWARE</td><td style="vertical-align:top;">:</td><td><div>Rocket 1.2.6</div></td></tr><tr><td style="font-weight:bold;vertical-align:top;">app_folders</td><td style="vertical-align:top;">:</td><td><div>set([&#x27;/home/nadia/Desktop/web2py/applications/admin/&#x27;, &#x27;/home/nadia/Desktop/web2py/applications/Perla_V6/&#x27;, &#x27;/home/nadia/Desktop/web2py/applications/welcome/&#x27;])</div></td></tr><tr><td style="font-weight:bold;vertical-align:top;">applications_parent</td><td style="vertical-align:top;">:</td><td><div>/home/nadia/Desktop/web2py</div></td></tr><tr><td style="font-weight:bold;vertical-align:top;">cmd_args</td><td style="vertical-align:top;">:</td><td><div><table></table></div></td></tr><tr><td style="font-weight:bold;vertical-align:top;">cmd_options</td><td style="vertical-align:top;">:</td><td><div>&lt;Values at 0x7fe72f81a050: {&#x27;verbose&#x27;: False, &#x27;ip&#x27;: &#x27;127.0.0.1&#x27;, &#x27;debuglevel&#x27;: 30, &#x27;with_scheduler&#x27;: False, &#x27;shutdown_timeout&#x27;: 5, &#x27;taskbar&#x27;: False, &#x27;with_coverage&#x27;: False, &#x27;pid_filename&#x27;: &#x27;httpserver.pid&#x27;, &#x27;maxthreads&#x27;: None, &#x27;softcron&#x27;: False, &#x27;server_name&#x27;: &#x27;nadia-Lenovo-B50-10&#x27;, &#x27;bpython&#x27;: False, &#x27;nogui&#x27;: False, &#x27;port&#x27;: 8000, &#x27;print_errors&#x27;: False, &#x27;extcron&#x27;: False, &#x27;runcron&#x27;: False, &#x27;run_system_tests&#x27;: False, &#x27;test&#x27;: None, &#x27;folder&#x27;: &#x27;/home/nadia/Desktop/web2py&#x27;, &#x27;config&#x27;: &#x27;&#x27;, &#x27;minthreads&#x27;: None, &#x27;shell&#x27;: None, &#x27;run&#x27;: &#x27;&#x27;, &#x27;log_filename&#x27;: &#x27;httpserver.log&#x27;, &#x27;profiler_dir&#x27;: None, &#x27;args&#x27;: [&#x27;&#x27;], &#x27;socket_timeout&#x27;: 5, &#x27;ssl_ca_certificate&#x27;: None, &#x27;scheduler&#x27;: None, &#x27;interfaces&#x27;: None, &#x27;ssl_private_key&#x27;: &#x27;&#x27;, &#x27;gae&#x27;: None, &#x27;password&#x27;: &#x27;******&#x27;, &#x27;request_queue_size&#x27;: 5, &#x27;ssl_certificate&#x27;: &#x27;&#x27;, &#x27;cronjob&#x27;: False, &#x27;numthreads&#x27;: None, &#x27;quiet&#x27;: False, &#x27;import_models&#x27;: False, &#x27;timeout&#x27;: 10, &#x27;plain&#x27;: False, &#x27;nobanner&#x27;: False}&gt;</div></td></tr><tr><td style="font-weight:bold;vertical-align:top;">db_sessions</td><td style="vertical-align:top;">:</td><td><div>set([])</div></td></tr><tr><td style="font-weight:bold;vertical-align:top;">debugging</td><td style="vertical-align:top;">:</td><td><div>False</div></td></tr><tr><td style="font-weight:bold;vertical-align:top;">gluon_parent</td><td style="vertical-align:top;">:</td><td><div>/home/nadia/Desktop/web2py</div></td></tr><tr><td style="font-weight:bold;vertical-align:top;">http_accept</td><td style="vertical-align:top;">:</td><td><div>text/html,application/xhtml+xml,application/xml;q=0.9,image/webp,image/apng,*/*;q=0.8</div></td></tr><tr><td style="font-weight:bold;vertical-align:top;">http_accept_encoding</td><td style="vertical-align:top;">:</td><td><div>gzip, deflate, br</div></td></tr><tr><td style="font-weight:bold;vertical-align:top;">http_accept_language</td><td style="vertical-align:top;">:</td><td><div>fr-FR,fr;q=0.9,en-US;q=0.8,en;q=0.7</div></td></tr><tr><td style="font-weight:bold;vertical-align:top;">http_connection</td><td style="vertical-align:top;">:</td><td><div>keep-alive</div></td></tr><tr><td style="font-weight:bold;vertical-align:top;">http_cookie</td><td style="vertical-align:top;">:</td><td><div>session_id_application=127.0.0.1-1dee8e5f-5bae-4bcc-b58e-572d161d46cf; session_id_welcome=127.0.0.1-de309929-02ef-4897-98ab-15cb17d87925; session_id_admin=127.0.0.1-0cfb3e64-fcb8-412f-9492-d366c88a5da5; session_id_perla_v6=127.0.0.1-88fdffdc-e1f5-4f88-b592-87dd7bccd7c4</div></td></tr><tr><td style="font-weight:bold;vertical-align:top;">http_host</td><td style="vertical-align:top;">:</td><td><div>127.0.0.1:8000</div></td></tr><tr><td style="font-weight:bold;vertical-align:top;">http_referer</td><td style="vertical-align:top;">:</td><td><div>http://127.0.0.1:8000/Perla_V6/default/djelleba</div></td></tr><tr><td style="font-weight:bold;vertical-align:top;">http_upgrade_insecure_requests</td><td style="vertical-align:top;">:</td><td><div>1</div></td></tr><tr><td style="font-weight:bold;vertical-align:top;">http_user_agent</td><td style="vertical-align:top;">:</td><td><div>Mozilla/5.0 (X11; Linux x86_64) AppleWebKit/537.36 (KHTML, like Gecko) Chrome/69.0.3497.100 Safari/537.36</div></td></tr><tr><td style="font-weight:bold;vertical-align:top;">is_jython</td><td style="vertical-align:top;">:</td><td><div>False</div></td></tr><tr><td style="font-weight:bold;vertical-align:top;">is_pypy</td><td style="vertical-align:top;">:</td><td><div>False</div></td></tr><tr><td style="font-weight:bold;vertical-align:top;">is_source</td><td style="vertical-align:top;">:</td><td><div>True</div></td></tr><tr><td style="font-weight:bold;vertical-align:top;">local_hosts</td><td style="vertical-align:top;">:</td><td><div><table><tr><td><div>nadia-Lenovo-B50-10</div></td></tr><tr><td><div>::1</div></td></tr><tr><td><div>127.0.1.1</div></td></tr><tr><td><div>::ffff:127.0.0.1</div></td></tr><tr><td><div>127.0.0.1</div></td></tr></table></div></td></tr><tr><td style="font-weight:bold;vertical-align:top;">path_info</td><td style="vertical-align:top;">:</td><td><div>/Perla_V6/default/djelleba</div></td></tr><tr><td style="font-weight:bold;vertical-align:top;">query_string</td><td style="vertical-align:top;">:</td><td><div></div></td></tr><tr><td style="font-weight:bold;vertical-align:top;">remote_addr</td><td style="vertical-align:top;">:</td><td><div>127.0.0.1</div></td></tr><tr><td style="font-weight:bold;vertical-align:top;">remote_port</td><td style="vertical-align:top;">:</td><td><div>43920</div></td></tr><tr><td style="font-weight:bold;vertical-align:top;">request_method</td><td style="vertical-align:top;">:</td><td><div>GET</div></td></tr><tr><td style="font-weight:bold;vertical-align:top;">request_uri</td><td style="vertical-align:top;">:</td><td><div>/Perla_V6/default/djelleba</div></td></tr><tr><td style="font-weight:bold;vertical-align:top;">script_name</td><td style="vertical-align:top;">:</td><td><div></div></td></tr><tr><td style="font-weight:bold;vertical-align:top;">server_name</td><td style="vertical-align:top;">:</td><td><div>nadia-Lenovo-B50-10</div></td></tr><tr><td style="font-weight:bold;vertical-align:top;">server_port</td><td style="vertical-align:top;">:</td><td><div>8000</div></td></tr><tr><td style="font-weight:bold;vertical-align:top;">server_protocol</td><td style="vertical-align:top;">:</td><td><div>HTTP/1.1</div></td></tr><tr><td style="font-weight:bold;vertical-align:top;">server_software</td><td style="vertical-align:top;">:</td><td><div>Rocket 1.2.6</div></td></tr><tr><td style="font-weight:bold;vertical-align:top;">web2py_path</td><td style="vertical-align:top;">:</td><td><div>/home/nadia/Desktop/web2py</div></td></tr><tr><td style="font-weight:bold;vertical-align:top;">web2py_version</td><td style="vertical-align:top;">:</td><td><div>2.14.6-stable+timestamp.2016.05.10.00.21.47</div></td></tr><tr><td style="font-weight:bold;vertical-align:top;">wsgi.errors</td><td style="vertical-align:top;">:</td><td><div>&lt;open file &#x27;&lt;stderr&gt;&#x27;, mode &#x27;w&#x27; at 0x7fe733b481e0&gt;</div></td></tr><tr><td style="font-weight:bold;vertical-align:top;">wsgi.file_wrapper</td><td style="vertical-align:top;">:</td><td><div>&lt;class wsgiref.util.FileWrapper at 0x7fe72f8a0940&gt;</div></td></tr><tr><td style="font-weight:bold;vertical-align:top;">wsgi.input</td><td style="vertical-align:top;">:</td><td><div>&lt;socket._fileobject object at 0x7fe6fabd3050&gt;</div></td></tr><tr><td style="font-weight:bold;vertical-align:top;">wsgi.multiprocess</td><td style="vertical-align:top;">:</td><td><div>False</div></td></tr><tr><td style="font-weight:bold;vertical-align:top;">wsgi.multithread</td><td style="vertical-align:top;">:</td><td><div>True</div></td></tr><tr><td style="font-weight:bold;vertical-align:top;">wsgi.run_once</td><td style="vertical-align:top;">:</td><td><div>False</div></td></tr><tr><td style="font-weight:bold;vertical-align:top;">wsgi.url_scheme</td><td style="vertical-align:top;">:</td><td><div>http</div></td></tr><tr><td style="font-weight:bold;vertical-align:top;">wsgi.version</td><td style="vertical-align:top;">:</td><td><div><table><tr><td><div>1</div></td></tr><tr><td><div>0</div></td></tr></table></div></td></tr><tr><td style="font-weight:bold;vertical-align:top;">wsgi_errors</td><td style="vertical-align:top;">:</td><td><div>&lt;open file &#x27;&lt;stderr&gt;&#x27;, mode &#x27;w&#x27; at 0x7fe733b481e0&gt;</div></td></tr><tr><td style="font-weight:bold;vertical-align:top;">wsgi_file_wrapper</td><td style="vertical-align:top;">:</td><td><div>&lt;class wsgiref.util.FileWrapper at 0x7fe72f8a0940&gt;</div></td></tr><tr><td style="font-weight:bold;vertical-align:top;">wsgi_input</td><td style="vertical-align:top;">:</td><td><div>&lt;socket._fileobject object at 0x7fe6fabd3050&gt;</div></td></tr><tr><td style="font-weight:bold;vertical-align:top;">wsgi_multiprocess</td><td style="vertical-align:top;">:</td><td><div>False</div></td></tr><tr><td style="font-weight:bold;vertical-align:top;">wsgi_multithread</td><td style="vertical-align:top;">:</td><td><div>True</div></td></tr><tr><td style="font-weight:bold;vertical-align:top;">wsgi_run_once</td><td style="vertical-align:top;">:</td><td><div>False</div></td></tr><tr><td style="font-weight:bold;vertical-align:top;">wsgi_url_scheme</td><td style="vertical-align:top;">:</td><td><div>http</div></td></tr><tr><td style="font-weight:bold;vertical-align:top;">wsgi_version</td><td style="vertical-align:top;">:</td><td><div><table><tr><td><div>1</div></td></tr><tr><td><div>0</div></td></tr></table></div></td></tr></table></div></td></tr><tr><td style="font-weight:bold;vertical-align:top;">extension</td><td style="vertical-align:top;">:</td><td><div>html</div></td></tr><tr><td style="font-weight:bold;vertical-align:top;">folder</td><td style="vertical-align:top;">:</td><td><div>/home/nadia/Desktop/web2py/applications/Perla_V6/</div></td></tr><tr><td style="font-weight:bold;vertical-align:top;">function</td><td style="vertical-align:top;">:</td><td><div>djelleba</div></td></tr><tr><td style="font-weight:bold;vertical-align:top;">global_settings</td><td style="vertical-align:top;">:</td><td><div><table><tr><td style="font-weight:bold;vertical-align:top;">app_folders</td><td style="vertical-align:top;">:</td><td><div>set([&#x27;/home/nadia/Desktop/web2py/applications/admin/&#x27;, &#x27;/home/nadia/Desktop/web2py/applications/Perla_V6/&#x27;, &#x27;/home/nadia/Desktop/web2py/applications/welcome/&#x27;])</div></td></tr><tr><td style="font-weight:bold;vertical-align:top;">applications_parent</td><td style="vertical-align:top;">:</td><td><div>/home/nadia/Desktop/web2py</div></td></tr><tr><td style="font-weight:bold;vertical-align:top;">cmd_args</td><td style="vertical-align:top;">:</td><td><div><table></table></div></td></tr><tr><td style="font-weight:bold;vertical-align:top;">cmd_options</td><td style="vertical-align:top;">:</td><td><div>&lt;Values at 0x7fe72f81a050: {&#x27;verbose&#x27;: False, &#x27;ip&#x27;: &#x27;127.0.0.1&#x27;, &#x27;debuglevel&#x27;: 30, &#x27;with_scheduler&#x27;: False, &#x27;shutdown_timeout&#x27;: 5, &#x27;taskbar&#x27;: False, &#x27;with_coverage&#x27;: False, &#x27;pid_filename&#x27;: &#x27;httpserver.pid&#x27;, &#x27;maxthreads&#x27;: None, &#x27;softcron&#x27;: False, &#x27;server_name&#x27;: &#x27;nadia-Lenovo-B50-10&#x27;, &#x27;bpython&#x27;: False, &#x27;nogui&#x27;: False, &#x27;port&#x27;: 8000, &#x27;print_errors&#x27;: False, &#x27;extcron&#x27;: False, &#x27;runcron&#x27;: False, &#x27;run_system_tests&#x27;: False, &#x27;test&#x27;: None, &#x27;folder&#x27;: &#x27;/home/nadia/Desktop/web2py&#x27;, &#x27;config&#x27;: &#x27;&#x27;, &#x27;minthreads&#x27;: None, &#x27;shell&#x27;: None, &#x27;run&#x27;: &#x27;&#x27;, &#x27;log_filename&#x27;: &#x27;httpserver.log&#x27;, &#x27;profiler_dir&#x27;: None, &#x27;args&#x27;: [&#x27;&#x27;], &#x27;socket_timeout&#x27;: 5, &#x27;ssl_ca_certificate&#x27;: None, &#x27;scheduler&#x27;: None, &#x27;interfaces&#x27;: None, &#x27;ssl_private_key&#x27;: &#x27;&#x27;, &#x27;gae&#x27;: None, &#x27;password&#x27;: &#x27;******&#x27;, &#x27;request_queue_size&#x27;: 5, &#x27;ssl_certificate&#x27;: &#x27;&#x27;, &#x27;cronjob&#x27;: False, &#x27;numthreads&#x27;: None, &#x27;quiet&#x27;: False, &#x27;import_models&#x27;: False, &#x27;timeout&#x27;: 10, &#x27;plain&#x27;: False, &#x27;nobanner&#x27;: False}&gt;</div></td></tr><tr><td style="font-weight:bold;vertical-align:top;">db_sessions</td><td style="vertical-align:top;">:</td><td><div>set([])</div></td></tr><tr><td style="font-weight:bold;vertical-align:top;">debugging</td><td style="vertical-align:top;">:</td><td><div>False</div></td></tr><tr><td style="font-weight:bold;vertical-align:top;">gluon_parent</td><td style="vertical-align:top;">:</td><td><div>/home/nadia/Desktop/web2py</div></td></tr><tr><td style="font-weight:bold;vertical-align:top;">is_jython</td><td style="vertical-align:top;">:</td><td><div>False</div></td></tr><tr><td style="font-weight:bold;vertical-align:top;">is_pypy</td><td style="vertical-align:top;">:</td><td><div>False</div></td></tr><tr><td style="font-weight:bold;vertical-align:top;">is_source</td><td style="vertical-align:top;">:</td><td><div>True</div></td></tr><tr><td style="font-weight:bold;vertical-align:top;">local_hosts</td><td style="vertical-align:top;">:</td><td><div><table><tr><td><div>nadia-Lenovo-B50-10</div></td></tr><tr><td><div>::1</div></td></tr><tr><td><div>127.0.1.1</div></td></tr><tr><td><div>::ffff:127.0.0.1</div></td></tr><tr><td><div>127.0.0.1</div></td></tr></table></div></td></tr><tr><td style="font-weight:bold;vertical-align:top;">web2py_version</td><td style="vertical-align:top;">:</td><td><div>2.14.6-stable+timestamp.2016.05.10.00.21.47</div></td></tr></table></div></td></tr><tr><td style="font-weight:bold;vertical-align:top;">is_https</td><td style="vertical-align:top;">:</td><td><div>False</div></td></tr><tr><td style="font-weight:bold;vertical-align:top;">is_local</td><td style="vertical-align:top;">:</td><td><div>True</div></td></tr><tr><td style="font-weight:bold;vertical-align:top;">is_restful</td><td style="vertical-align:top;">:</td><td><div>False</div></td></tr><tr><td style="font-weight:bold;vertical-align:top;">is_scheduler</td><td style="vertical-align:top;">:</td><td><div>False</div></td></tr><tr><td style="font-weight:bold;vertical-align:top;">is_shell</td><td style="vertical-align:top;">:</td><td><div>False</div></td></tr><tr><td style="font-weight:bold;vertical-align:top;">now</td><td style="vertical-align:top;">:</td><td><div>datetime.datetime(2018, 9, 30, 13, 39, 13, 893272)</div></td></tr><tr><td style="font-weight:bold;vertical-align:top;">raw_args</td><td style="vertical-align:top;">:</td><td><div></div></td></tr><tr><td style="font-weight:bold;vertical-align:top;">raw_extension</td><td style="vertical-align:top;">:</td><td><div>None</div></td></tr><tr><td style="font-weight:bold;vertical-align:top;">url</td><td style="vertical-align:top;">:</td><td><div>/Perla_V6/default/djelleba</div></td></tr><tr><td style="font-weight:bold;vertical-align:top;">utcnow</td><td style="vertical-align:top;">:</td><td><div>datetime.datetime(2018, 9, 30, 11, 39, 13, 893332)</div></td></tr><tr><td style="font-weight:bold;vertical-align:top;">wsgi</td><td style="vertical-align:top;">:</td><td><div>&lt;gluon.main.LazyWSGI object at 0x7fe6faad2110&gt;</div></td></tr></table></div>'
tRp70
sS'frames'
p71
(lp72
(dp73
S'file'
p74
S'/home/nadia/Desktop/web2py/gluon/restricted.py'
p75
sS'dump'
p76
(dp77
S'code'
p78
S'"response.write(\'<!--\\\\nAuthor: W3layouts\\\\nAuthor ... escape=False)\\nresponse.write(\'\\\\n\', escape=False)"'
p79
sS'layer'
p80
S"'/home/nadia/Desktop/web2py/applications/Perla_V6/views/default/djelleba.html'"
p81
sS'global compile2'
p82
S'<function compile2>'
p83
sS'ccode'
p84
S'undefined'
p85
ssS'lnum'
p86
I226
sS'lines'
p87
(dp88
I224
S'            ccode = code'
p89
sI225
S'        else:'
p90
sI226
S'            ccode = compile2(code, layer)'
p91
sI227
S'        exec ccode in environment'
p92
sI228
S'    except HTTP:'
p93
sI229
S'        raise'
p94
sI230
S'    except RestrictedError:'
p95
sI221
S"    environment['__name__'] = '__restricted__'"
p96
sI222
S'    try:'
p97
sI223
S'        if isinstance(code, types.CodeType):'
p98
ssS'call'
p99
S'(code="response.write(\'<!--\\\\nAuthor: W3layouts\\\\nAuthor ... escape=False)\\nresponse.write(\'\\\\n\', escape=False)", environment={\'A\': <class \'gluon.html.A\'>, \'ANY_OF\': <class \'gluon.validators.ANY_OF\'>, \'ASSIGNJS\': <function ASSIGNJS>, \'AppConfig\': <function AppConfig>, \'Auth\': <class \'gluon.tools.Auth\'>, \'B\': <class \'gluon.html.B\'>, \'BEAUTIFY\': <class \'gluon.html.BEAUTIFY\'>, \'BODY\': <class \'gluon.html.BODY\'>, \'BR\': <class \'gluon.html.BR\'>, \'BUTTON\': <class \'gluon.html.BUTTON\'>, ...}, layer=\'/home/nadia/Desktop/web2py/applications/Perla_V6/views/default/djelleba.html\')'
p100
sS'func'
p101
S'restricted'
p102
sa(dp103
g74
S'/home/nadia/Desktop/web2py/gluon/restricted.py'
p104
sg76
(dp105
S'builtincompile'
p106
S'<built-in function compile>'
p107
sS'code'
p108
S'"response.write(\'<!--\\\\nAuthor: W3layouts\\\\nAuthor ... escape=False)\\nresponse.write(\'\\\\n\', escape=False)"'
p109
sS'code.rstrip'
p110
S'<built-in method rstrip of str object>'
p111
sS').replace'
p112
g85
sS'layer'
p113
S"'/home/nadia/Desktop/web2py/applications/Perla_V6/views/default/djelleba.html'"
p114
ssg86
I209
sg87
(dp115
I204
S'def compile2(code, layer):'
p116
sI205
S'    """'
p117
sI206
S"    The ``+'\\\\n'`` is necessary else compile fails when code ends in a comment."
p118
sI207
S'    """'
p119
sI208
S''
sI209
S"    return compile(code.rstrip().replace('\\r\\n', '\\n') + '\\n', layer, 'exec')"
p120
sI210
S''
sI211
S''
sI212
S"def restricted(code, environment=None, layer='Unknown'):"
p121
sI213
S'    """'
p122
ssg99
S'(code="response.write(\'<!--\\\\nAuthor: W3layouts\\\\nAuthor ... escape=False)\\nresponse.write(\'\\\\n\', escape=False)", layer=\'/home/nadia/Desktop/web2py/applications/Perla_V6/views/default/djelleba.html\')'
p123
sg101
S'compile2'
p124
sasS'pyver'
p125
S'Python 2.7.12: /usr/bin/python (prefix: /usr)'
p126
sS'session'
p127
g69
(S's\xa6\x00\x00\x00<div><table><tr><td style="font-weight:bold;vertical-align:top;">cart</td><td style="vertical-align:top;">:</td><td><div><table></table></div></td></tr></table></div>'
tRp128
sS'etype'
p129
S"<type 'exceptions.SyntaxError'>"
p130
sS'date'
p131
S'Sun Sep 30 13:39:14 2018'
p132
sS'response'
p133
g69
(S's\xe5?\x00\x00<div><table><tr><td style="font-weight:bold;vertical-align:top;">body</td><td style="vertical-align:top;">:</td><td><div>&lt;cStringIO.StringO object at 0x7fe6fa1504c8&gt;</div></td></tr><tr><td style="font-weight:bold;vertical-align:top;">cookies</td><td style="vertical-align:top;">:</td><td><div><table><tr><td style="font-weight:bold;vertical-align:top;">session_id_perla_v6</td><td style="vertical-align:top;">:</td><td><div>127.0.0.1-88fdffdc-e1f5-4f88-b592-87dd7bccd7c4<table><tr><td style="font-weight:bold;vertical-align:top;">comment</td><td style="vertical-align:top;">:</td><td><div></div></td></tr><tr><td style="font-weight:bold;vertical-align:top;">domain</td><td style="vertical-align:top;">:</td><td><div></div></td></tr><tr><td style="font-weight:bold;vertical-align:top;">expires</td><td style="vertical-align:top;">:</td><td><div></div></td></tr><tr><td style="font-weight:bold;vertical-align:top;">httponly</td><td style="vertical-align:top;">:</td><td><div></div></td></tr><tr><td style="font-weight:bold;vertical-align:top;">max-age</td><td style="vertical-align:top;">:</td><td><div></div></td></tr><tr><td style="font-weight:bold;vertical-align:top;">path</td><td style="vertical-align:top;">:</td><td><div>/</div></td></tr><tr><td style="font-weight:bold;vertical-align:top;">secure</td><td style="vertical-align:top;">:</td><td><div></div></td></tr><tr><td style="font-weight:bold;vertical-align:top;">version</td><td style="vertical-align:top;">:</td><td><div></div></td></tr></table></div></td></tr></table></div></td></tr><tr><td style="font-weight:bold;vertical-align:top;">delimiters</td><td style="vertical-align:top;">:</td><td><div><table><tr><td><div>{{</div></td></tr><tr><td><div>}}</div></td></tr></table></div></td></tr><tr><td style="font-weight:bold;vertical-align:top;">files</td><td style="vertical-align:top;">:</td><td><div><table></table></div></td></tr><tr><td style="font-weight:bold;vertical-align:top;">flash</td><td style="vertical-align:top;">:</td><td><div></div></td></tr><tr><td style="font-weight:bold;vertical-align:top;">form_label_separator</td><td style="vertical-align:top;">:</td><td><div></div></td></tr><tr><td style="font-weight:bold;vertical-align:top;">formstyle</td><td style="vertical-align:top;">:</td><td><div>bootstrap3_inline</div></td></tr><tr><td style="font-weight:bold;vertical-align:top;">generic_patterns</td><td style="vertical-align:top;">:</td><td><div><table><tr><td><div>*</div></td></tr></table></div></td></tr><tr><td style="font-weight:bold;vertical-align:top;">google_analytics_id</td><td style="vertical-align:top;">:</td><td><div>None</div></td></tr><tr><td style="font-weight:bold;vertical-align:top;">headers</td><td style="vertical-align:top;">:</td><td><div><table><tr><td style="font-weight:bold;vertical-align:top;">X-Powered-By</td><td style="vertical-align:top;">:</td><td><div>web2py</div></td></tr></table></div></td></tr><tr><td style="font-weight:bold;vertical-align:top;">logo</td><td style="vertical-align:top;">:</td><td><div><a class="navbar-brand" href="http://www.web2py.com/" id="web2py-logo"><b>web<span>2</span>py</b>&trade;&nbsp;</a></div></td></tr><tr><td style="font-weight:bold;vertical-align:top;">menu</td><td style="vertical-align:top;">:</td><td><div><table><tr><td><div><table><tr><td><div>Accueil</div></td></tr><tr><td><div>False</div></td></tr><tr><td><div>/Perla_V6/default/index</div></td></tr><tr><td><div><table></table></div></td></tr></table></div></td></tr><tr><td><div><table><tr><td><div>Mes sites</div></td></tr><tr><td><div>False</div></td></tr><tr><td><div>/admin/default/site</div></td></tr></table></div></td></tr><tr><td><div><table><tr><td><div>Cette Appli</div></td></tr><tr><td><div>False</div></td></tr><tr><td><div>#</div></td></tr><tr><td><div><table><tr><td><div><table><tr><td><div>Design</div></td></tr><tr><td><div>False</div></td></tr><tr><td><div>/admin/default/design/Perla_V6</div></td></tr></table></div></td></tr><tr><td><div><li class="divider"></li></div></td></tr><tr><td><div><table><tr><td><div>Contr\xc3\xb4leur</div></td></tr><tr><td><div>False</div></td></tr><tr><td><div>/admin/default/edit/Perla_V6/controllers/default.py</div></td></tr></table></div></td></tr><tr><td><div><table><tr><td><div>Pr\xc3\xa9sentation</div></td></tr><tr><td><div>False</div></td></tr><tr><td><div>/admin/default/edit/Perla_V6/views/default/djelleba.html</div></td></tr></table></div></td></tr><tr><td><div><table><tr><td><div>Mod\xc3\xa8le BDD</div></td></tr><tr><td><div>False</div></td></tr><tr><td><div>/admin/default/edit/Perla_V6/models/db.py</div></td></tr></table></div></td></tr><tr><td><div><table><tr><td><div>Menu mod\xc3\xa8le</div></td></tr><tr><td><div>False</div></td></tr><tr><td><div>/admin/default/edit/Perla_V6/models/menu.py</div></td></tr></table></div></td></tr><tr><td><div><table><tr><td><div>Config.ini</div></td></tr><tr><td><div>False</div></td></tr><tr><td><div>/admin/default/edit/Perla_V6/private/appconfig.ini</div></td></tr></table></div></td></tr><tr><td><div><table><tr><td><div>Mise en page</div></td></tr><tr><td><div>False</div></td></tr><tr><td><div>/admin/default/edit/Perla_V6/views/layout.html</div></td></tr></table></div></td></tr><tr><td><div><table><tr><td><div>Feuille de style</div></td></tr><tr><td><div>False</div></td></tr><tr><td><div>/admin/default/edit/Perla_V6/static/css/web2py-bootstrap3.css</div></td></tr></table></div></td></tr><tr><td><div><table><tr><td><div>base de donn\xc3\xa9es</div></td></tr><tr><td><div>False</div></td></tr><tr><td><div>/Perla_V6/appadmin/index</div></td></tr></table></div></td></tr><tr><td><div><table><tr><td><div>Erreurs</div></td></tr><tr><td><div>False</div></td></tr><tr><td><div>/admin/default/errors/Perla_V6</div></td></tr></table></div></td></tr><tr><td><div><table><tr><td><div>\xc3\x80 propos</div></td></tr><tr><td><div>False</div></td></tr><tr><td><div>/admin/default/about/Perla_V6</div></td></tr></table></div></td></tr></table></div></td></tr></table></div></td></tr><tr><td><div><table><tr><td><div>web2py.com</div></td></tr><tr><td><div>False</div></td></tr><tr><td><div>#</div></td></tr><tr><td><div><table><tr><td><div><table><tr><td><div>T\xc3\xa9l\xc3\xa9chargement</div></td></tr><tr><td><div>False</div></td></tr><tr><td><div>http://www.web2py.com/examples/default/download</div></td></tr></table></div></td></tr><tr><td><div><table><tr><td><div>Support</div></td></tr><tr><td><div>False</div></td></tr><tr><td><div>http://www.web2py.com/examples/default/support</div></td></tr></table></div></td></tr><tr><td><div><table><tr><td><div>D\xc3\xa9mo</div></td></tr><tr><td><div>False</div></td></tr><tr><td><div>http://web2py.com/demo_admin</div></td></tr></table></div></td></tr><tr><td><div><table><tr><td><div>Exemples Rapides</div></td></tr><tr><td><div>False</div></td></tr><tr><td><div>http://web2py.com/examples/default/examples</div></td></tr></table></div></td></tr><tr><td><div><table><tr><td><div>FAQ</div></td></tr><tr><td><div>False</div></td></tr><tr><td><div>http://web2py.com/AlterEgo</div></td></tr></table></div></td></tr><tr><td><div><table><tr><td><div>Vid\xc3\xa9os</div></td></tr><tr><td><div>False</div></td></tr><tr><td><div>http://www.web2py.com/examples/default/videos/</div></td></tr></table></div></td></tr><tr><td><div><table><tr><td><div>Applications gratuites</div></td></tr><tr><td><div>False</div></td></tr><tr><td><div>http://web2py.com/appliances</div></td></tr></table></div></td></tr><tr><td><div><table><tr><td><div>Plugins</div></td></tr><tr><td><div>False</div></td></tr><tr><td><div>http://web2py.com/plugins</div></td></tr></table></div></td></tr><tr><td><div><table><tr><td><div>Recettes</div></td></tr><tr><td><div>False</div></td></tr><tr><td><div>http://web2pyslices.com/</div></td></tr></table></div></td></tr></table></div></td></tr></table></div></td></tr><tr><td><div><table><tr><td><div>Documentation</div></td></tr><tr><td><div>False</div></td></tr><tr><td><div>#</div></td></tr><tr><td><div><table><tr><td><div><table><tr><td><div>Online book</div></td></tr><tr><td><div>False</div></td></tr><tr><td><div>http://www.web2py.com/book</div></td></tr></table></div></td></tr><tr><td><div><li class="divider"></li></div></td></tr><tr><td><div><table><tr><td><div>Pr\xc3\xa9face</div></td></tr><tr><td><div>False</div></td></tr><tr><td><div>http://www.web2py.com/book/default/chapter/00</div></td></tr></table></div></td></tr><tr><td><div><table><tr><td><div>Introduction</div></td></tr><tr><td><div>False</div></td></tr><tr><td><div>http://www.web2py.com/book/default/chapter/01</div></td></tr></table></div></td></tr><tr><td><div><table><tr><td><div>Python</div></td></tr><tr><td><div>False</div></td></tr><tr><td><div>http://www.web2py.com/book/default/chapter/02</div></td></tr></table></div></td></tr><tr><td><div><table><tr><td><div>Pr\xc3\xa9sentation</div></td></tr><tr><td><div>False</div></td></tr><tr><td><div>http://www.web2py.com/book/default/chapter/03</div></td></tr></table></div></td></tr><tr><td><div><table><tr><td><div>Le noyau</div></td></tr><tr><td><div>False</div></td></tr><tr><td><div>http://www.web2py.com/book/default/chapter/04</div></td></tr></table></div></td></tr><tr><td><div><table><tr><td><div>Les Vues</div></td></tr><tr><td><div>False</div></td></tr><tr><td><div>http://www.web2py.com/book/default/chapter/05</div></td></tr></table></div></td></tr><tr><td><div><table><tr><td><div>base de donn\xc3\xa9es</div></td></tr><tr><td><div>False</div></td></tr><tr><td><div>http://www.web2py.com/book/default/chapter/06</div></td></tr></table></div></td></tr><tr><td><div><table><tr><td><div>Formulaires et Validateurs</div></td></tr><tr><td><div>False</div></td></tr><tr><td><div>http://www.web2py.com/book/default/chapter/07</div></td></tr></table></div></td></tr><tr><td><div><table><tr><td><div>Email et SMS</div></td></tr><tr><td><div>False</div></td></tr><tr><td><div>http://www.web2py.com/book/default/chapter/08</div></td></tr></table></div></td></tr><tr><td><div><table><tr><td><div>Contr\xc3\xb4le d\'acc\xc3\xa8s</div></td></tr><tr><td><div>False</div></td></tr><tr><td><div>http://www.web2py.com/book/default/chapter/09</div></td></tr></table></div></td></tr><tr><td><div><table><tr><td><div>Services</div></td></tr><tr><td><div>False</div></td></tr><tr><td><div>http://www.web2py.com/book/default/chapter/10</div></td></tr></table></div></td></tr><tr><td><div><table><tr><td><div>Recettes Ajax</div></td></tr><tr><td><div>False</div></td></tr><tr><td><div>http://www.web2py.com/book/default/chapter/11</div></td></tr></table></div></td></tr><tr><td><div><table><tr><td><div>Composants et Plugins</div></td></tr><tr><td><div>False</div></td></tr><tr><td><div>http://www.web2py.com/book/default/chapter/12</div></td></tr></table></div></td></tr><tr><td><div><table><tr><td><div>Recettes de d\xc3\xa9ploiement</div></td></tr><tr><td><div>False</div></td></tr><tr><td><div>http://www.web2py.com/book/default/chapter/13</div></td></tr></table></div></td></tr><tr><td><div><table><tr><td><div>Autres recettes</div></td></tr><tr><td><div>False</div></td></tr><tr><td><div>http://www.web2py.com/book/default/chapter/14</div></td></tr></table></div></td></tr><tr><td><div><table><tr><td><div>Helping web2py</div></td></tr><tr><td><div>False</div></td></tr><tr><td><div>http://www.web2py.com/book/default/chapter/15</div></td></tr></table></div></td></tr><tr><td><div><table><tr><td><div>Buy web2py\'s book</div></td></tr><tr><td><div>False</div></td></tr><tr><td><div>http://stores.lulu.com/web2py</div></td></tr></table></div></td></tr></table></div></td></tr></table></div></td></tr><tr><td><div><table><tr><td><div>Communaut\xc3\xa9</div></td></tr><tr><td><div>False</div></td></tr><tr><td><div>None</div></td></tr><tr><td><div><table><tr><td><div><table><tr><td><div>Groupes</div></td></tr><tr><td><div>False</div></td></tr><tr><td><div>http://www.web2py.com/examples/default/usergroups</div></td></tr></table></div></td></tr><tr><td><div><table><tr><td><div>Twitter</div></td></tr><tr><td><div>False</div></td></tr><tr><td><div>http://twitter.com/web2py</div></td></tr></table></div></td></tr><tr><td><div><table><tr><td><div>Chat en direct</div></td></tr><tr><td><div>False</div></td></tr><tr><td><div>http://webchat.freenode.net/?channels=web2py</div></td></tr></table></div></td></tr></table></div></td></tr></table></div></td></tr></table></div></td></tr><tr><td style="font-weight:bold;vertical-align:top;">meta</td><td style="vertical-align:top;">:</td><td><div><table><tr><td style="font-weight:bold;vertical-align:top;">author</td><td style="vertical-align:top;">:</td><td><div>Your Name &lt;you@example.com&gt;</div></td></tr><tr><td style="font-weight:bold;vertical-align:top;">description</td><td style="vertical-align:top;">:</td><td><div>a cool new app</div></td></tr><tr><td style="font-weight:bold;vertical-align:top;">generator</td><td style="vertical-align:top;">:</td><td><div>Web2py Web Framework</div></td></tr><tr><td style="font-weight:bold;vertical-align:top;">keywords</td><td style="vertical-align:top;">:</td><td><div><table><tr><td><div>web2py</div></td></tr><tr><td><div>python</div></td></tr><tr><td><div>framework</div></td></tr></table></div></td></tr></table></div></td></tr><tr><td style="font-weight:bold;vertical-align:top;">models_to_run</td><td style="vertical-align:top;">:</td><td><div><table><tr><td><div>^\\w+\\.py$</div></td></tr><tr><td><div>^default/\\w+\\.py$</div></td></tr><tr><td><div>^default/djelleba/\\w+\\.py$</div></td></tr></table></div></td></tr><tr><td style="font-weight:bold;vertical-align:top;">postprocessing</td><td style="vertical-align:top;">:</td><td><div><table></table></div></td></tr><tr><td style="font-weight:bold;vertical-align:top;">session_client</td><td style="vertical-align:top;">:</td><td><div>127.0.0.1</div></td></tr><tr><td style="font-weight:bold;vertical-align:top;">session_cookie_compression_level</td><td style="vertical-align:top;">:</td><td><div>None</div></td></tr><tr><td style="font-weight:bold;vertical-align:top;">session_cookie_expires</td><td style="vertical-align:top;">:</td><td><div>None</div></td></tr><tr><td style="font-weight:bold;vertical-align:top;">session_data_name</td><td style="vertical-align:top;">:</td><td><div>session_data_perla_v6</div></td></tr><tr><td style="font-weight:bold;vertical-align:top;">session_file</td><td style="vertical-align:top;">:</td><td><div>&lt;open file &#x27;/home/nadia/Desktop/web2py/applications/Perla_V6/sessions/156/14a/127.0.0.1-88fdffdc-e1f5-4f88-b592-87dd7bccd7c4&#x27;, mode &#x27;rb+&#x27; at 0x7fe6fa3db810&gt;</div></td></tr><tr><td style="font-weight:bold;vertical-align:top;">session_filename</td><td style="vertical-align:top;">:</td><td><div>/home/nadia/Desktop/web2py/applications/Perla_V6/sessions/127.0.0.1-88fdffdc-e1f5-4f88-b592-87dd7bccd7c4</div></td></tr><tr><td style="font-weight:bold;vertical-align:top;">session_hash</td><td style="vertical-align:top;">:</td><td><div>5880e760797a06774598c476c4a4ea9b</div></td></tr><tr><td style="font-weight:bold;vertical-align:top;">session_id</td><td style="vertical-align:top;">:</td><td><div>127.0.0.1-88fdffdc-e1f5-4f88-b592-87dd7bccd7c4</div></td></tr><tr><td style="font-weight:bold;vertical-align:top;">session_id_name</td><td style="vertical-align:top;">:</td><td><div>session_id_perla_v6</div></td></tr><tr><td style="font-weight:bold;vertical-align:top;">session_locked</td><td style="vertical-align:top;">:</td><td><div>True</div></td></tr><tr><td style="font-weight:bold;vertical-align:top;">session_masterapp</td><td style="vertical-align:top;">:</td><td><div>Perla_V6</div></td></tr><tr><td style="font-weight:bold;vertical-align:top;">session_new</td><td style="vertical-align:top;">:</td><td><div>False</div></td></tr><tr><td style="font-weight:bold;vertical-align:top;">session_storage_type</td><td style="vertical-align:top;">:</td><td><div>file</div></td></tr><tr><td style="font-weight:bold;vertical-align:top;">status</td><td style="vertical-align:top;">:</td><td><div>200</div></td></tr><tr><td style="font-weight:bold;vertical-align:top;">subtitle</td><td style="vertical-align:top;">:</td><td><div></div></td></tr><tr><td style="font-weight:bold;vertical-align:top;">title</td><td style="vertical-align:top;">:</td><td><div>Perla V6</div></td></tr><tr><td style="font-weight:bold;vertical-align:top;">view</td><td style="vertical-align:top;">:</td><td><div>default/djelleba.html</div></td></tr></table></div>'
tRp134
sS'locals'
p135
(dp136
g4
S"'/home/nadia/Desktop/web2py/applications/Perla_V6/views/default/djelleba.html'"
p137
sg6
S'"response.write(\'<!--\\\\nAuthor: W3layouts\\\\nAuthor ... escape=False)\\nresponse.write(\'\\\\n\', escape=False)"'
p138
sssS'traceback'
p139
S'Traceback (most recent call last):\n  File "/home/nadia/Desktop/web2py/gluon/restricted.py", line 226, in restricted\n    ccode = compile2(code, layer)\n  File "/home/nadia/Desktop/web2py/gluon/restricted.py", line 209, in compile2\n    return compile(code.rstrip().replace(\'\\r\\n\', \'\\n\') + \'\\n\', layer, \'exec\')\n  File "/home/nadia/Desktop/web2py/applications/Perla_V6/views/default/djelleba.html", line 114\n    response.write((URL(\'default\', \'caftan_en_vente)))\n                                                     ^\nSyntaxError: EOL while scanning string literal\n'
p140
s.